
thread.elf:     file format elf32-littleriscv
thread.elf
architecture: riscv:rv32, flags 0x00000112:
EXEC_P, HAS_SYMS, D_PAGED
start address 0x80000000

Program Header:
0x70000003 off    0x00003840 vaddr 0x00000000 paddr 0x00000000 align 2**0
         filesz 0x0000004b memsz 0x00000000 flags r--
    LOAD off    0x00001000 vaddr 0x80000000 paddr 0x80000000 align 2**12
         filesz 0x00002840 memsz 0x000029e0 flags rwx

Sections:
Idx Name              Size      VMA       LMA       File off  Algn  Flags
  0 .init             0000000c  80000000  80000000  00001000  2**3  CONTENTS, ALLOC, LOAD, READONLY, CODE
  1 .text             0000210c  80000010  80000010  00001010  2**3  CONTENTS, ALLOC, LOAD, READONLY, CODE
  2 .rodata           000001e8  80002120  80002120  00003120  2**3  CONTENTS, ALLOC, LOAD, READONLY, DATA
  3 .data             00000538  80002308  80002308  00003308  2**3  CONTENTS, ALLOC, LOAD, DATA
  4 .bss              000001a0  80002840  80002840  00003840  2**3  ALLOC
  5 .riscv.attributes 0000004b  00000000  00000000  00003840  2**0  CONTENTS, READONLY
  6 .comment          00000032  00000000  00000000  0000388b  2**0  CONTENTS, READONLY
SYMBOL TABLE:
80000000 l    d  .init	00000000 .init
80000010 l    d  .text	00000000 .text
80002120 l    d  .rodata	00000000 .rodata
80002308 l    d  .data	00000000 .data
80002840 l    d  .bss	00000000 .bss
00000000 l    d  .riscv.attributes	00000000 .riscv.attributes
00000000 l    d  .comment	00000000 .comment
00000000 l    df *ABS*	00000000 ccudRqea.o
80000008 l       .init	00000000 _end
00000000 l    df *ABS*	00000000 cckrfYVu.o
00000000 l    df *ABS*	00000000 thread.c
80002830 l     O .data	00000004 brk
00000000 l    df *ABS*	00000000 libc_a-itoa.o
00000000 l    df *ABS*	00000000 libc_a-malloc.o
00000000 l    df *ABS*	00000000 libc_a-mallocr.o
00000000 l    df *ABS*	00000000 libc_a-mlock.o
00000000 l    df *ABS*	00000000 libc_a-utoa.o
00000000 l    df *ABS*	00000000 libc_a-strcat.o
00000000 l    df *ABS*	00000000 libc_a-strncat.o
00000000 l    df *ABS*	00000000 libc_a-sbrkr.o
00000000 l    df *ABS*	00000000 libc_a-strlen.o
00000000 l    df *ABS*	00000000 libc_a-strcpy.o
00000000 l    df *ABS*	00000000 libc_a-lock.o
00000000 l    df *ABS*	00000000 libc_a-freer.o
00000000 l    df *ABS*	00000000 div.o
80001b80 g     F .text	000000a4 strcpy
8000047c g     F .text	00000098 printf
80000b7c g     F .text	00000038 thread_exit
800017cc g     F .text	0000000c __malloc_unlock
80000bfc g     F .text	000000e8 produce
80002870 g     O .bss	00000004 errno
8000009c g       .text	00000000 ctx_switch
80002070 g     F .text	00000048 .hidden __hidden___udivsi3
80000ce4 g     F .text	000000e4 consume
80000f74 g     F .text	00000010 malloc
80002070 g     F .text	00000048 .hidden __udivsi3
80002868 g     O .bss	00000004 __malloc_top_pad
80000f04 g     F .text	00000070 itoa
80001a7c g     F .text	00000078 _sbrk_r
80002864 g     O .bss	00000004 __malloc_max_sbrked_mem
800007c4 g     F .text	00000084 thread_init
80000720 g     F .text	00000084 _sbrk
80000af4 g     F .text	00000088 cv_signal
8000192c g     F .text	00000004 utoa
8000286c g     O .bss	00000001 __lock___malloc_recursive_mutex
800028a8 g     O .bss	00000138 __sf
80002854 g     O .bss	00000004 tail
80001930 g     F .text	000000a0 strcat
800020b8 g     F .text	00000010 .hidden __umodsi3
80001c28 g     F .text	00000004 __retarget_lock_release_recursive
80002850 g     O .bss	00000004 head
8000285c g     O .bss	00000004 nonfull
80001d70 g     F .text	000002f8 _free_r
800001a8 g     F .text	00000068 terminal_write
80000210 g     F .text	0000026c format_to_str
80002840 g     O .bss	00000004 runQueue
80002834 g     O .data	00000004 __malloc_sbrk_base
80000000 g       .init	00000000 _start
80002874 g     O .bss	0000000c buffer
80002880 g     O .bss	00000028 __malloc_current_mallinfo
80000634 g     F .text	000000ac queue_dequeue
800019d0 g     F .text	000000ac strncat
80002308 g     O .data	00000408 __malloc_av_
800007a4 g     F .text	00000020 infinite_loop
800017c0 g     F .text	0000000c __malloc_lock
800017d8 g     F .text	00000154 __utoa
80001c24 g     F .text	00000004 __retarget_lock_acquire_recursive
80000ed8 g     F .text	0000002c main
80002860 g     O .bss	00000004 __malloc_max_total_mem
80000010 g       .text	00000000 ctx_start
80000f94 g     F .text	0000082c _malloc_r
80000bb4 g     F .text	00000048 ctx_entry
80002068 g     F .text	00000084 .hidden __divsi3
80001c2c g     F .text	00000144 _malloc_trim_r
80002858 g     O .bss	00000004 nonempty
8000284c g     O .bss	00000004 count
80000a64 g     F .text	00000038 cv_init
8000283c g     O .data	00000004 _impure_ptr
8000095c g     F .text	00000108 thread_yield
800029e0 g       .riscv.attributes	00000000 __heap_start
80002844 g     O .bss	00000004 curr_thread
80000a9c g     F .text	00000058 cv_wait
80002848 g     O .bss	00000004 next_thread
80002838 g     O .data	00000004 __malloc_trim_threshold
80000dc8 g     F .text	00000110 test3
800020ec g     F .text	00000030 .hidden __modsi3
80002710 g     O .data	00000120 _impure_data
800006e0 g     F .text	00000040 queue_length
80001af4 g     F .text	0000008c strlen
80000848 g     F .text	00000114 thread_create
80000514 g     F .text	00000060 queue_new
80200000 g       *ABS*	00000000 __heap_max
80000574 g     F .text	000000c0 queue_enqueue
80000f84 g     F .text	00000010 free



Disassembly of section .init:

80000000 <_start>:
_start():
80000000:	80400137          	lui	sp,0x80400
80000004:	6d5000ef          	jal	80000ed8 <main>

80000008 <_end>:
_end():
80000008:	000000ef          	jal	80000008 <_end>

Disassembly of section .text:

80000010 <ctx_start>:
ctx_start():
80000010:	f8010113          	addi	sp,sp,-128 # 803fff80 <__heap_max+0x1fff80>
80000014:	00112023          	sw	ra,0(sp)
80000018:	00512223          	sw	t0,4(sp)
8000001c:	00612423          	sw	t1,8(sp)
80000020:	00712623          	sw	t2,12(sp)
80000024:	01c12823          	sw	t3,16(sp)
80000028:	01d12a23          	sw	t4,20(sp)
8000002c:	01e12c23          	sw	t5,24(sp)
80000030:	01f12e23          	sw	t6,28(sp)
80000034:	02a12023          	sw	a0,32(sp)
80000038:	02b12223          	sw	a1,36(sp)
8000003c:	02c12423          	sw	a2,40(sp)
80000040:	02d12623          	sw	a3,44(sp)
80000044:	02e12823          	sw	a4,48(sp)
80000048:	02f12a23          	sw	a5,52(sp)
8000004c:	03012c23          	sw	a6,56(sp)
80000050:	03112e23          	sw	a7,60(sp)
80000054:	04812023          	sw	s0,64(sp)
80000058:	04912223          	sw	s1,68(sp)
8000005c:	05212423          	sw	s2,72(sp)
80000060:	05312623          	sw	s3,76(sp)
80000064:	05412823          	sw	s4,80(sp)
80000068:	05512a23          	sw	s5,84(sp)
8000006c:	05612c23          	sw	s6,88(sp)
80000070:	05712e23          	sw	s7,92(sp)
80000074:	07812023          	sw	s8,96(sp)
80000078:	07912223          	sw	s9,100(sp)
8000007c:	07a12423          	sw	s10,104(sp)
80000080:	07b12623          	sw	s11,108(sp)
80000084:	06312823          	sw	gp,112(sp)
80000088:	06412a23          	sw	tp,116(sp)
8000008c:	06212c23          	sw	sp,120(sp)
80000090:	00252023          	sw	sp,0(a0)
80000094:	00058113          	mv	sp,a1
80000098:	31d000ef          	jal	80000bb4 <ctx_entry>

8000009c <ctx_switch>:
ctx_switch():
8000009c:	f8010113          	addi	sp,sp,-128
800000a0:	00112023          	sw	ra,0(sp)
800000a4:	00512223          	sw	t0,4(sp)
800000a8:	00612423          	sw	t1,8(sp)
800000ac:	00712623          	sw	t2,12(sp)
800000b0:	01c12823          	sw	t3,16(sp)
800000b4:	01d12a23          	sw	t4,20(sp)
800000b8:	01e12c23          	sw	t5,24(sp)
800000bc:	01f12e23          	sw	t6,28(sp)
800000c0:	02a12023          	sw	a0,32(sp)
800000c4:	02b12223          	sw	a1,36(sp)
800000c8:	02c12423          	sw	a2,40(sp)
800000cc:	02d12623          	sw	a3,44(sp)
800000d0:	02e12823          	sw	a4,48(sp)
800000d4:	02f12a23          	sw	a5,52(sp)
800000d8:	03012c23          	sw	a6,56(sp)
800000dc:	03112e23          	sw	a7,60(sp)
800000e0:	04812023          	sw	s0,64(sp)
800000e4:	04912223          	sw	s1,68(sp)
800000e8:	05212423          	sw	s2,72(sp)
800000ec:	05312623          	sw	s3,76(sp)
800000f0:	05412823          	sw	s4,80(sp)
800000f4:	05512a23          	sw	s5,84(sp)
800000f8:	05612c23          	sw	s6,88(sp)
800000fc:	05712e23          	sw	s7,92(sp)
80000100:	07812023          	sw	s8,96(sp)
80000104:	07912223          	sw	s9,100(sp)
80000108:	07a12423          	sw	s10,104(sp)
8000010c:	07b12623          	sw	s11,108(sp)
80000110:	06312823          	sw	gp,112(sp)
80000114:	06412a23          	sw	tp,116(sp)
80000118:	06212c23          	sw	sp,120(sp)
8000011c:	00252023          	sw	sp,0(a0)
80000120:	00058113          	mv	sp,a1
80000124:	00012083          	lw	ra,0(sp)
80000128:	00412283          	lw	t0,4(sp)
8000012c:	00812303          	lw	t1,8(sp)
80000130:	00c12383          	lw	t2,12(sp)
80000134:	01012e03          	lw	t3,16(sp)
80000138:	01412e83          	lw	t4,20(sp)
8000013c:	01812f03          	lw	t5,24(sp)
80000140:	01c12f83          	lw	t6,28(sp)
80000144:	02012503          	lw	a0,32(sp)
80000148:	02412583          	lw	a1,36(sp)
8000014c:	02812603          	lw	a2,40(sp)
80000150:	02c12683          	lw	a3,44(sp)
80000154:	03012703          	lw	a4,48(sp)
80000158:	03412783          	lw	a5,52(sp)
8000015c:	03812803          	lw	a6,56(sp)
80000160:	03c12883          	lw	a7,60(sp)
80000164:	04012403          	lw	s0,64(sp)
80000168:	04412483          	lw	s1,68(sp)
8000016c:	04812903          	lw	s2,72(sp)
80000170:	04c12983          	lw	s3,76(sp)
80000174:	05012a03          	lw	s4,80(sp)
80000178:	05412a83          	lw	s5,84(sp)
8000017c:	05812b03          	lw	s6,88(sp)
80000180:	05c12b83          	lw	s7,92(sp)
80000184:	06012c03          	lw	s8,96(sp)
80000188:	06412c83          	lw	s9,100(sp)
8000018c:	06812d03          	lw	s10,104(sp)
80000190:	06c12d83          	lw	s11,108(sp)
80000194:	07012183          	lw	gp,112(sp)
80000198:	07412203          	lw	tp,116(sp)
8000019c:	07812103          	lw	sp,120(sp)
800001a0:	08010113          	addi	sp,sp,128
800001a4:	00008067          	ret

800001a8 <terminal_write>:
terminal_write():
800001a8:	fd010113          	addi	sp,sp,-48
800001ac:	02112623          	sw	ra,44(sp)
800001b0:	02812423          	sw	s0,40(sp)
800001b4:	03010413          	addi	s0,sp,48
800001b8:	fca42e23          	sw	a0,-36(s0)
800001bc:	fcb42c23          	sw	a1,-40(s0)
800001c0:	fe042623          	sw	zero,-20(s0)
800001c4:	0280006f          	j	800001ec <terminal_write+0x44>
800001c8:	fec42783          	lw	a5,-20(s0)
800001cc:	fdc42703          	lw	a4,-36(s0)
800001d0:	00f70733          	add	a4,a4,a5
800001d4:	100007b7          	lui	a5,0x10000
800001d8:	00074703          	lbu	a4,0(a4)
800001dc:	00e78023          	sb	a4,0(a5) # 10000000 <_start-0x70000000>
800001e0:	fec42783          	lw	a5,-20(s0)
800001e4:	00178793          	addi	a5,a5,1
800001e8:	fef42623          	sw	a5,-20(s0)
800001ec:	fec42703          	lw	a4,-20(s0)
800001f0:	fd842783          	lw	a5,-40(s0)
800001f4:	fcf74ae3          	blt	a4,a5,800001c8 <terminal_write+0x20>
800001f8:	00000013          	nop
800001fc:	00000013          	nop
80000200:	02c12083          	lw	ra,44(sp)
80000204:	02812403          	lw	s0,40(sp)
80000208:	03010113          	addi	sp,sp,48
8000020c:	00008067          	ret

80000210 <format_to_str>:
format_to_str():
80000210:	fd010113          	addi	sp,sp,-48
80000214:	02112623          	sw	ra,44(sp)
80000218:	02812423          	sw	s0,40(sp)
8000021c:	02912223          	sw	s1,36(sp)
80000220:	03010413          	addi	s0,sp,48
80000224:	fca42e23          	sw	a0,-36(s0)
80000228:	fcb42c23          	sw	a1,-40(s0)
8000022c:	fcc42a23          	sw	a2,-44(s0)
80000230:	fdc42783          	lw	a5,-36(s0)
80000234:	00078023          	sb	zero,0(a5)
80000238:	21c0006f          	j	80000454 <format_to_str+0x244>
8000023c:	fd842783          	lw	a5,-40(s0)
80000240:	0007c703          	lbu	a4,0(a5)
80000244:	02500793          	li	a5,37
80000248:	00f70c63          	beq	a4,a5,80000260 <format_to_str+0x50>
8000024c:	00100613          	li	a2,1
80000250:	fd842583          	lw	a1,-40(s0)
80000254:	fdc42503          	lw	a0,-36(s0)
80000258:	778010ef          	jal	800019d0 <strncat>
8000025c:	1ec0006f          	j	80000448 <format_to_str+0x238>
80000260:	fd842783          	lw	a5,-40(s0)
80000264:	00178793          	addi	a5,a5,1
80000268:	fcf42c23          	sw	a5,-40(s0)
8000026c:	fd842783          	lw	a5,-40(s0)
80000270:	0007c703          	lbu	a4,0(a5)
80000274:	07300793          	li	a5,115
80000278:	02f71263          	bne	a4,a5,8000029c <format_to_str+0x8c>
8000027c:	fd442783          	lw	a5,-44(s0)
80000280:	00478713          	addi	a4,a5,4
80000284:	fce42a23          	sw	a4,-44(s0)
80000288:	0007a783          	lw	a5,0(a5)
8000028c:	00078593          	mv	a1,a5
80000290:	fdc42503          	lw	a0,-36(s0)
80000294:	69c010ef          	jal	80001930 <strcat>
80000298:	1b00006f          	j	80000448 <format_to_str+0x238>
8000029c:	fd842783          	lw	a5,-40(s0)
800002a0:	0007c703          	lbu	a4,0(a5)
800002a4:	06400793          	li	a5,100
800002a8:	02f71e63          	bne	a4,a5,800002e4 <format_to_str+0xd4>
800002ac:	fd442783          	lw	a5,-44(s0)
800002b0:	00478713          	addi	a4,a5,4
800002b4:	fce42a23          	sw	a4,-44(s0)
800002b8:	0007a483          	lw	s1,0(a5)
800002bc:	fdc42503          	lw	a0,-36(s0)
800002c0:	035010ef          	jal	80001af4 <strlen>
800002c4:	00050713          	mv	a4,a0
800002c8:	fdc42783          	lw	a5,-36(s0)
800002cc:	00e787b3          	add	a5,a5,a4
800002d0:	00a00613          	li	a2,10
800002d4:	00078593          	mv	a1,a5
800002d8:	00048513          	mv	a0,s1
800002dc:	429000ef          	jal	80000f04 <itoa>
800002e0:	1680006f          	j	80000448 <format_to_str+0x238>
800002e4:	fd842783          	lw	a5,-40(s0)
800002e8:	0007c703          	lbu	a4,0(a5)
800002ec:	06300793          	li	a5,99
800002f0:	04f71a63          	bne	a4,a5,80000344 <format_to_str+0x134>
800002f4:	fd442783          	lw	a5,-44(s0)
800002f8:	00478713          	addi	a4,a5,4
800002fc:	fce42a23          	sw	a4,-44(s0)
80000300:	0007a783          	lw	a5,0(a5)
80000304:	fef407a3          	sb	a5,-17(s0)
80000308:	fdc42503          	lw	a0,-36(s0)
8000030c:	7e8010ef          	jal	80001af4 <strlen>
80000310:	00050793          	mv	a5,a0
80000314:	fef42423          	sw	a5,-24(s0)
80000318:	fe842783          	lw	a5,-24(s0)
8000031c:	fdc42703          	lw	a4,-36(s0)
80000320:	00f707b3          	add	a5,a4,a5
80000324:	fef44703          	lbu	a4,-17(s0)
80000328:	00e78023          	sb	a4,0(a5)
8000032c:	fe842783          	lw	a5,-24(s0)
80000330:	00178793          	addi	a5,a5,1
80000334:	fdc42703          	lw	a4,-36(s0)
80000338:	00f707b3          	add	a5,a4,a5
8000033c:	00078023          	sb	zero,0(a5)
80000340:	1080006f          	j	80000448 <format_to_str+0x238>
80000344:	fd842783          	lw	a5,-40(s0)
80000348:	0007c703          	lbu	a4,0(a5)
8000034c:	07800793          	li	a5,120
80000350:	02f71e63          	bne	a4,a5,8000038c <format_to_str+0x17c>
80000354:	fd442783          	lw	a5,-44(s0)
80000358:	00478713          	addi	a4,a5,4
8000035c:	fce42a23          	sw	a4,-44(s0)
80000360:	0007a483          	lw	s1,0(a5)
80000364:	fdc42503          	lw	a0,-36(s0)
80000368:	78c010ef          	jal	80001af4 <strlen>
8000036c:	00050713          	mv	a4,a0
80000370:	fdc42783          	lw	a5,-36(s0)
80000374:	00e787b3          	add	a5,a5,a4
80000378:	01000613          	li	a2,16
8000037c:	00078593          	mv	a1,a5
80000380:	00048513          	mv	a0,s1
80000384:	381000ef          	jal	80000f04 <itoa>
80000388:	0c00006f          	j	80000448 <format_to_str+0x238>
8000038c:	fd842783          	lw	a5,-40(s0)
80000390:	0007c703          	lbu	a4,0(a5)
80000394:	07500793          	li	a5,117
80000398:	02f71e63          	bne	a4,a5,800003d4 <format_to_str+0x1c4>
8000039c:	fd442783          	lw	a5,-44(s0)
800003a0:	00478713          	addi	a4,a5,4
800003a4:	fce42a23          	sw	a4,-44(s0)
800003a8:	0007a483          	lw	s1,0(a5)
800003ac:	fdc42503          	lw	a0,-36(s0)
800003b0:	744010ef          	jal	80001af4 <strlen>
800003b4:	00050713          	mv	a4,a0
800003b8:	fdc42783          	lw	a5,-36(s0)
800003bc:	00e787b3          	add	a5,a5,a4
800003c0:	00a00613          	li	a2,10
800003c4:	00078593          	mv	a1,a5
800003c8:	00048513          	mv	a0,s1
800003cc:	560010ef          	jal	8000192c <utoa>
800003d0:	0780006f          	j	80000448 <format_to_str+0x238>
800003d4:	fd842783          	lw	a5,-40(s0)
800003d8:	0007c703          	lbu	a4,0(a5)
800003dc:	07000793          	li	a5,112
800003e0:	06f71463          	bne	a4,a5,80000448 <format_to_str+0x238>
800003e4:	fdc42503          	lw	a0,-36(s0)
800003e8:	70c010ef          	jal	80001af4 <strlen>
800003ec:	00050793          	mv	a5,a0
800003f0:	00078713          	mv	a4,a5
800003f4:	fdc42783          	lw	a5,-36(s0)
800003f8:	00e787b3          	add	a5,a5,a4
800003fc:	03000713          	li	a4,48
80000400:	00e78023          	sb	a4,0(a5)
80000404:	07800713          	li	a4,120
80000408:	00e780a3          	sb	a4,1(a5)
8000040c:	00078123          	sb	zero,2(a5)
80000410:	fd442783          	lw	a5,-44(s0)
80000414:	00478713          	addi	a4,a5,4
80000418:	fce42a23          	sw	a4,-44(s0)
8000041c:	0007a783          	lw	a5,0(a5)
80000420:	00078493          	mv	s1,a5
80000424:	fdc42503          	lw	a0,-36(s0)
80000428:	6cc010ef          	jal	80001af4 <strlen>
8000042c:	00050713          	mv	a4,a0
80000430:	fdc42783          	lw	a5,-36(s0)
80000434:	00e787b3          	add	a5,a5,a4
80000438:	01000613          	li	a2,16
8000043c:	00078593          	mv	a1,a5
80000440:	00048513          	mv	a0,s1
80000444:	4e8010ef          	jal	8000192c <utoa>
80000448:	fd842783          	lw	a5,-40(s0)
8000044c:	00178793          	addi	a5,a5,1
80000450:	fcf42c23          	sw	a5,-40(s0)
80000454:	fd842783          	lw	a5,-40(s0)
80000458:	0007c783          	lbu	a5,0(a5)
8000045c:	de0790e3          	bnez	a5,8000023c <format_to_str+0x2c>
80000460:	00000013          	nop
80000464:	00000013          	nop
80000468:	02c12083          	lw	ra,44(sp)
8000046c:	02812403          	lw	s0,40(sp)
80000470:	02412483          	lw	s1,36(sp)
80000474:	03010113          	addi	sp,sp,48
80000478:	00008067          	ret

8000047c <printf>:
printf():
8000047c:	db010113          	addi	sp,sp,-592
80000480:	22112623          	sw	ra,556(sp)
80000484:	22812423          	sw	s0,552(sp)
80000488:	23010413          	addi	s0,sp,560
8000048c:	dca42e23          	sw	a0,-548(s0)
80000490:	00b42223          	sw	a1,4(s0)
80000494:	00c42423          	sw	a2,8(s0)
80000498:	00d42623          	sw	a3,12(s0)
8000049c:	00e42823          	sw	a4,16(s0)
800004a0:	00f42a23          	sw	a5,20(s0)
800004a4:	01042c23          	sw	a6,24(s0)
800004a8:	01142e23          	sw	a7,28(s0)
800004ac:	02040793          	addi	a5,s0,32
800004b0:	dcf42c23          	sw	a5,-552(s0)
800004b4:	dd842783          	lw	a5,-552(s0)
800004b8:	fe478793          	addi	a5,a5,-28
800004bc:	def42623          	sw	a5,-532(s0)
800004c0:	dec42703          	lw	a4,-532(s0)
800004c4:	df040793          	addi	a5,s0,-528
800004c8:	00070613          	mv	a2,a4
800004cc:	ddc42583          	lw	a1,-548(s0)
800004d0:	00078513          	mv	a0,a5
800004d4:	d3dff0ef          	jal	80000210 <format_to_str>
800004d8:	df040793          	addi	a5,s0,-528
800004dc:	00078513          	mv	a0,a5
800004e0:	614010ef          	jal	80001af4 <strlen>
800004e4:	00050793          	mv	a5,a0
800004e8:	00078713          	mv	a4,a5
800004ec:	df040793          	addi	a5,s0,-528
800004f0:	00070593          	mv	a1,a4
800004f4:	00078513          	mv	a0,a5
800004f8:	cb1ff0ef          	jal	800001a8 <terminal_write>
800004fc:	00000793          	li	a5,0
80000500:	00078513          	mv	a0,a5
80000504:	22c12083          	lw	ra,556(sp)
80000508:	22812403          	lw	s0,552(sp)
8000050c:	25010113          	addi	sp,sp,592
80000510:	00008067          	ret

80000514 <queue_new>:
queue_new():
80000514:	fe010113          	addi	sp,sp,-32
80000518:	00112e23          	sw	ra,28(sp)
8000051c:	00812c23          	sw	s0,24(sp)
80000520:	02010413          	addi	s0,sp,32
80000524:	00c00513          	li	a0,12
80000528:	24d000ef          	jal	80000f74 <malloc>
8000052c:	00050793          	mv	a5,a0
80000530:	fef42623          	sw	a5,-20(s0)
80000534:	fec42783          	lw	a5,-20(s0)
80000538:	00079663          	bnez	a5,80000544 <queue_new+0x30>
8000053c:	00000793          	li	a5,0
80000540:	0200006f          	j	80000560 <queue_new+0x4c>
80000544:	fec42783          	lw	a5,-20(s0)
80000548:	0007a023          	sw	zero,0(a5)
8000054c:	fec42783          	lw	a5,-20(s0)
80000550:	0007a223          	sw	zero,4(a5)
80000554:	fec42783          	lw	a5,-20(s0)
80000558:	0007a423          	sw	zero,8(a5)
8000055c:	fec42783          	lw	a5,-20(s0)
80000560:	00078513          	mv	a0,a5
80000564:	01c12083          	lw	ra,28(sp)
80000568:	01812403          	lw	s0,24(sp)
8000056c:	02010113          	addi	sp,sp,32
80000570:	00008067          	ret

80000574 <queue_enqueue>:
queue_enqueue():
80000574:	fd010113          	addi	sp,sp,-48
80000578:	02112623          	sw	ra,44(sp)
8000057c:	02812423          	sw	s0,40(sp)
80000580:	03010413          	addi	s0,sp,48
80000584:	fca42e23          	sw	a0,-36(s0)
80000588:	fcb42c23          	sw	a1,-40(s0)
8000058c:	fdc42783          	lw	a5,-36(s0)
80000590:	00079663          	bnez	a5,8000059c <queue_enqueue+0x28>
80000594:	fff00793          	li	a5,-1
80000598:	0880006f          	j	80000620 <queue_enqueue+0xac>
8000059c:	00800513          	li	a0,8
800005a0:	1d5000ef          	jal	80000f74 <malloc>
800005a4:	00050793          	mv	a5,a0
800005a8:	fef42623          	sw	a5,-20(s0)
800005ac:	fec42783          	lw	a5,-20(s0)
800005b0:	00079663          	bnez	a5,800005bc <queue_enqueue+0x48>
800005b4:	fff00793          	li	a5,-1
800005b8:	0680006f          	j	80000620 <queue_enqueue+0xac>
800005bc:	fec42783          	lw	a5,-20(s0)
800005c0:	fd842703          	lw	a4,-40(s0)
800005c4:	00e7a023          	sw	a4,0(a5)
800005c8:	fec42783          	lw	a5,-20(s0)
800005cc:	0007a223          	sw	zero,4(a5)
800005d0:	fdc42783          	lw	a5,-36(s0)
800005d4:	0087a783          	lw	a5,8(a5)
800005d8:	00079a63          	bnez	a5,800005ec <queue_enqueue+0x78>
800005dc:	fdc42783          	lw	a5,-36(s0)
800005e0:	fec42703          	lw	a4,-20(s0)
800005e4:	00e7a023          	sw	a4,0(a5)
800005e8:	0140006f          	j	800005fc <queue_enqueue+0x88>
800005ec:	fdc42783          	lw	a5,-36(s0)
800005f0:	0047a783          	lw	a5,4(a5)
800005f4:	fec42703          	lw	a4,-20(s0)
800005f8:	00e7a223          	sw	a4,4(a5)
800005fc:	fdc42783          	lw	a5,-36(s0)
80000600:	fec42703          	lw	a4,-20(s0)
80000604:	00e7a223          	sw	a4,4(a5)
80000608:	fdc42783          	lw	a5,-36(s0)
8000060c:	0087a783          	lw	a5,8(a5)
80000610:	00178713          	addi	a4,a5,1
80000614:	fdc42783          	lw	a5,-36(s0)
80000618:	00e7a423          	sw	a4,8(a5)
8000061c:	00000793          	li	a5,0
80000620:	00078513          	mv	a0,a5
80000624:	02c12083          	lw	ra,44(sp)
80000628:	02812403          	lw	s0,40(sp)
8000062c:	03010113          	addi	sp,sp,48
80000630:	00008067          	ret

80000634 <queue_dequeue>:
queue_dequeue():
80000634:	fd010113          	addi	sp,sp,-48
80000638:	02112623          	sw	ra,44(sp)
8000063c:	02812423          	sw	s0,40(sp)
80000640:	03010413          	addi	s0,sp,48
80000644:	fca42e23          	sw	a0,-36(s0)
80000648:	fdc42783          	lw	a5,-36(s0)
8000064c:	00078863          	beqz	a5,8000065c <queue_dequeue+0x28>
80000650:	fdc42783          	lw	a5,-36(s0)
80000654:	0087a783          	lw	a5,8(a5)
80000658:	00079663          	bnez	a5,80000664 <queue_dequeue+0x30>
8000065c:	00000793          	li	a5,0
80000660:	06c0006f          	j	800006cc <queue_dequeue+0x98>
80000664:	fdc42783          	lw	a5,-36(s0)
80000668:	0007a783          	lw	a5,0(a5)
8000066c:	0007a783          	lw	a5,0(a5)
80000670:	fef42623          	sw	a5,-20(s0)
80000674:	fdc42783          	lw	a5,-36(s0)
80000678:	0087a703          	lw	a4,8(a5)
8000067c:	00100793          	li	a5,1
80000680:	00f71663          	bne	a4,a5,8000068c <queue_dequeue+0x58>
80000684:	fdc42783          	lw	a5,-36(s0)
80000688:	0007a223          	sw	zero,4(a5)
8000068c:	fdc42783          	lw	a5,-36(s0)
80000690:	0007a783          	lw	a5,0(a5)
80000694:	fef42423          	sw	a5,-24(s0)
80000698:	fdc42783          	lw	a5,-36(s0)
8000069c:	0007a783          	lw	a5,0(a5)
800006a0:	0047a703          	lw	a4,4(a5)
800006a4:	fdc42783          	lw	a5,-36(s0)
800006a8:	00e7a023          	sw	a4,0(a5)
800006ac:	fe842503          	lw	a0,-24(s0)
800006b0:	0d5000ef          	jal	80000f84 <free>
800006b4:	fdc42783          	lw	a5,-36(s0)
800006b8:	0087a783          	lw	a5,8(a5)
800006bc:	fff78713          	addi	a4,a5,-1
800006c0:	fdc42783          	lw	a5,-36(s0)
800006c4:	00e7a423          	sw	a4,8(a5)
800006c8:	fec42783          	lw	a5,-20(s0)
800006cc:	00078513          	mv	a0,a5
800006d0:	02c12083          	lw	ra,44(sp)
800006d4:	02812403          	lw	s0,40(sp)
800006d8:	03010113          	addi	sp,sp,48
800006dc:	00008067          	ret

800006e0 <queue_length>:
queue_length():
800006e0:	fe010113          	addi	sp,sp,-32
800006e4:	00112e23          	sw	ra,28(sp)
800006e8:	00812c23          	sw	s0,24(sp)
800006ec:	02010413          	addi	s0,sp,32
800006f0:	fea42623          	sw	a0,-20(s0)
800006f4:	fec42783          	lw	a5,-20(s0)
800006f8:	00079663          	bnez	a5,80000704 <queue_length+0x24>
800006fc:	00000793          	li	a5,0
80000700:	00c0006f          	j	8000070c <queue_length+0x2c>
80000704:	fec42783          	lw	a5,-20(s0)
80000708:	0087a783          	lw	a5,8(a5)
8000070c:	00078513          	mv	a0,a5
80000710:	01c12083          	lw	ra,28(sp)
80000714:	01812403          	lw	s0,24(sp)
80000718:	02010113          	addi	sp,sp,32
8000071c:	00008067          	ret

80000720 <_sbrk>:
_sbrk():
80000720:	fd010113          	addi	sp,sp,-48
80000724:	02112623          	sw	ra,44(sp)
80000728:	02812423          	sw	s0,40(sp)
8000072c:	03010413          	addi	s0,sp,48
80000730:	fca42e23          	sw	a0,-36(s0)
80000734:	800037b7          	lui	a5,0x80003
80000738:	8307a703          	lw	a4,-2000(a5) # 80002830 <brk>
8000073c:	fdc42783          	lw	a5,-36(s0)
80000740:	00f70733          	add	a4,a4,a5
80000744:	802007b7          	lui	a5,0x80200
80000748:	00078793          	mv	a5,a5
8000074c:	00e7fe63          	bgeu	a5,a4,80000768 <_sbrk+0x48>
80000750:	01d00593          	li	a1,29
80000754:	800027b7          	lui	a5,0x80002
80000758:	12078513          	addi	a0,a5,288 # 80002120 <__modsi3+0x34>
8000075c:	a4dff0ef          	jal	800001a8 <terminal_write>
80000760:	00000793          	li	a5,0
80000764:	02c0006f          	j	80000790 <_sbrk+0x70>
80000768:	800037b7          	lui	a5,0x80003
8000076c:	8307a783          	lw	a5,-2000(a5) # 80002830 <brk>
80000770:	fef42623          	sw	a5,-20(s0)
80000774:	800037b7          	lui	a5,0x80003
80000778:	8307a703          	lw	a4,-2000(a5) # 80002830 <brk>
8000077c:	fdc42783          	lw	a5,-36(s0)
80000780:	00f70733          	add	a4,a4,a5
80000784:	800037b7          	lui	a5,0x80003
80000788:	82e7a823          	sw	a4,-2000(a5) # 80002830 <brk>
8000078c:	fec42783          	lw	a5,-20(s0)
80000790:	00078513          	mv	a0,a5
80000794:	02c12083          	lw	ra,44(sp)
80000798:	02812403          	lw	s0,40(sp)
8000079c:	03010113          	addi	sp,sp,48
800007a0:	00008067          	ret

800007a4 <infinite_loop>:
infinite_loop():
800007a4:	ff010113          	addi	sp,sp,-16
800007a8:	00112623          	sw	ra,12(sp)
800007ac:	00812423          	sw	s0,8(sp)
800007b0:	01010413          	addi	s0,sp,16
800007b4:	800027b7          	lui	a5,0x80002
800007b8:	14078513          	addi	a0,a5,320 # 80002140 <__modsi3+0x54>
800007bc:	cc1ff0ef          	jal	8000047c <printf>
800007c0:	0000006f          	j	800007c0 <infinite_loop+0x1c>

800007c4 <thread_init>:
thread_init():
800007c4:	fe010113          	addi	sp,sp,-32
800007c8:	00112e23          	sw	ra,28(sp)
800007cc:	00812c23          	sw	s0,24(sp)
800007d0:	02010413          	addi	s0,sp,32
800007d4:	d41ff0ef          	jal	80000514 <queue_new>
800007d8:	00050713          	mv	a4,a0
800007dc:	800037b7          	lui	a5,0x80003
800007e0:	84e7a023          	sw	a4,-1984(a5) # 80002840 <runQueue>
800007e4:	01400513          	li	a0,20
800007e8:	78c000ef          	jal	80000f74 <malloc>
800007ec:	00050793          	mv	a5,a0
800007f0:	fef42623          	sw	a5,-20(s0)
800007f4:	fec42783          	lw	a5,-20(s0)
800007f8:	00079a63          	bnez	a5,8000080c <thread_init+0x48>
800007fc:	800027b7          	lui	a5,0x80002
80000800:	15c78513          	addi	a0,a5,348 # 8000215c <__modsi3+0x70>
80000804:	c79ff0ef          	jal	8000047c <printf>
80000808:	f9dff0ef          	jal	800007a4 <infinite_loop>
8000080c:	fec42783          	lw	a5,-20(s0)
80000810:	00300713          	li	a4,3
80000814:	00e7a023          	sw	a4,0(a5)
80000818:	fec42783          	lw	a5,-20(s0)
8000081c:	0007a223          	sw	zero,4(a5)
80000820:	fec42783          	lw	a5,-20(s0)
80000824:	0007a423          	sw	zero,8(a5)
80000828:	800037b7          	lui	a5,0x80003
8000082c:	fec42703          	lw	a4,-20(s0)
80000830:	84e7a223          	sw	a4,-1980(a5) # 80002844 <curr_thread>
80000834:	00000013          	nop
80000838:	01c12083          	lw	ra,28(sp)
8000083c:	01812403          	lw	s0,24(sp)
80000840:	02010113          	addi	sp,sp,32
80000844:	00008067          	ret

80000848 <thread_create>:
thread_create():
80000848:	fd010113          	addi	sp,sp,-48
8000084c:	02112623          	sw	ra,44(sp)
80000850:	02812423          	sw	s0,40(sp)
80000854:	03010413          	addi	s0,sp,48
80000858:	fca42e23          	sw	a0,-36(s0)
8000085c:	fcb42c23          	sw	a1,-40(s0)
80000860:	01400513          	li	a0,20
80000864:	710000ef          	jal	80000f74 <malloc>
80000868:	00050793          	mv	a5,a0
8000086c:	00078713          	mv	a4,a5
80000870:	800037b7          	lui	a5,0x80003
80000874:	84e7a423          	sw	a4,-1976(a5) # 80002848 <next_thread>
80000878:	00004537          	lui	a0,0x4
8000087c:	6f8000ef          	jal	80000f74 <malloc>
80000880:	00050793          	mv	a5,a0
80000884:	fef42623          	sw	a5,-20(s0)
80000888:	800037b7          	lui	a5,0x80003
8000088c:	8487a783          	lw	a5,-1976(a5) # 80002848 <next_thread>
80000890:	fec42703          	lw	a4,-20(s0)
80000894:	00e7a223          	sw	a4,4(a5)
80000898:	800037b7          	lui	a5,0x80003
8000089c:	8487a783          	lw	a5,-1976(a5) # 80002848 <next_thread>
800008a0:	fec42683          	lw	a3,-20(s0)
800008a4:	00004737          	lui	a4,0x4
800008a8:	00e68733          	add	a4,a3,a4
800008ac:	00e7a423          	sw	a4,8(a5)
800008b0:	800037b7          	lui	a5,0x80003
800008b4:	8487a783          	lw	a5,-1976(a5) # 80002848 <next_thread>
800008b8:	fdc42703          	lw	a4,-36(s0)
800008bc:	00e7a623          	sw	a4,12(a5)
800008c0:	800037b7          	lui	a5,0x80003
800008c4:	8487a783          	lw	a5,-1976(a5) # 80002848 <next_thread>
800008c8:	fd842703          	lw	a4,-40(s0)
800008cc:	00e7a823          	sw	a4,16(a5)
800008d0:	800037b7          	lui	a5,0x80003
800008d4:	8447a783          	lw	a5,-1980(a5) # 80002844 <curr_thread>
800008d8:	fef42423          	sw	a5,-24(s0)
800008dc:	800037b7          	lui	a5,0x80003
800008e0:	8447a783          	lw	a5,-1980(a5) # 80002844 <curr_thread>
800008e4:	00200713          	li	a4,2
800008e8:	00e7a023          	sw	a4,0(a5)
800008ec:	800037b7          	lui	a5,0x80003
800008f0:	8407a703          	lw	a4,-1984(a5) # 80002840 <runQueue>
800008f4:	800037b7          	lui	a5,0x80003
800008f8:	8447a783          	lw	a5,-1980(a5) # 80002844 <curr_thread>
800008fc:	00078593          	mv	a1,a5
80000900:	00070513          	mv	a0,a4
80000904:	c71ff0ef          	jal	80000574 <queue_enqueue>
80000908:	800037b7          	lui	a5,0x80003
8000090c:	8487a783          	lw	a5,-1976(a5) # 80002848 <next_thread>
80000910:	00300713          	li	a4,3
80000914:	00e7a023          	sw	a4,0(a5)
80000918:	800037b7          	lui	a5,0x80003
8000091c:	8487a703          	lw	a4,-1976(a5) # 80002848 <next_thread>
80000920:	800037b7          	lui	a5,0x80003
80000924:	84e7a223          	sw	a4,-1980(a5) # 80002844 <curr_thread>
80000928:	fe842783          	lw	a5,-24(s0)
8000092c:	00878713          	addi	a4,a5,8
80000930:	800037b7          	lui	a5,0x80003
80000934:	8447a783          	lw	a5,-1980(a5) # 80002844 <curr_thread>
80000938:	0087a783          	lw	a5,8(a5)
8000093c:	00078593          	mv	a1,a5
80000940:	00070513          	mv	a0,a4
80000944:	eccff0ef          	jal	80000010 <ctx_start>
80000948:	00000013          	nop
8000094c:	02c12083          	lw	ra,44(sp)
80000950:	02812403          	lw	s0,40(sp)
80000954:	03010113          	addi	sp,sp,48
80000958:	00008067          	ret

8000095c <thread_yield>:
thread_yield():
8000095c:	fe010113          	addi	sp,sp,-32
80000960:	00112e23          	sw	ra,28(sp)
80000964:	00812c23          	sw	s0,24(sp)
80000968:	02010413          	addi	s0,sp,32
8000096c:	800037b7          	lui	a5,0x80003
80000970:	8407a783          	lw	a5,-1984(a5) # 80002840 <runQueue>
80000974:	00078513          	mv	a0,a5
80000978:	d69ff0ef          	jal	800006e0 <queue_length>
8000097c:	00050793          	mv	a5,a0
80000980:	02079e63          	bnez	a5,800009bc <thread_yield+0x60>
80000984:	800037b7          	lui	a5,0x80003
80000988:	8447a783          	lw	a5,-1980(a5) # 80002844 <curr_thread>
8000098c:	0007a703          	lw	a4,0(a5)
80000990:	00400793          	li	a5,4
80000994:	00f71c63          	bne	a4,a5,800009ac <thread_yield+0x50>
80000998:	800027b7          	lui	a5,0x80002
8000099c:	17078513          	addi	a0,a5,368 # 80002170 <__modsi3+0x84>
800009a0:	addff0ef          	jal	8000047c <printf>
800009a4:	e01ff0ef          	jal	800007a4 <infinite_loop>
800009a8:	0140006f          	j	800009bc <thread_yield+0x60>
800009ac:	800027b7          	lui	a5,0x80002
800009b0:	19878513          	addi	a0,a5,408 # 80002198 <__modsi3+0xac>
800009b4:	ac9ff0ef          	jal	8000047c <printf>
800009b8:	09c0006f          	j	80000a54 <thread_yield+0xf8>
800009bc:	800037b7          	lui	a5,0x80003
800009c0:	8447a783          	lw	a5,-1980(a5) # 80002844 <curr_thread>
800009c4:	0007a703          	lw	a4,0(a5)
800009c8:	00300793          	li	a5,3
800009cc:	02f71863          	bne	a4,a5,800009fc <thread_yield+0xa0>
800009d0:	800037b7          	lui	a5,0x80003
800009d4:	8447a783          	lw	a5,-1980(a5) # 80002844 <curr_thread>
800009d8:	00200713          	li	a4,2
800009dc:	00e7a023          	sw	a4,0(a5)
800009e0:	800037b7          	lui	a5,0x80003
800009e4:	8407a703          	lw	a4,-1984(a5) # 80002840 <runQueue>
800009e8:	800037b7          	lui	a5,0x80003
800009ec:	8447a783          	lw	a5,-1980(a5) # 80002844 <curr_thread>
800009f0:	00078593          	mv	a1,a5
800009f4:	00070513          	mv	a0,a4
800009f8:	b7dff0ef          	jal	80000574 <queue_enqueue>
800009fc:	800037b7          	lui	a5,0x80003
80000a00:	8447a783          	lw	a5,-1980(a5) # 80002844 <curr_thread>
80000a04:	fef42623          	sw	a5,-20(s0)
80000a08:	800037b7          	lui	a5,0x80003
80000a0c:	8407a783          	lw	a5,-1984(a5) # 80002840 <runQueue>
80000a10:	00078513          	mv	a0,a5
80000a14:	c21ff0ef          	jal	80000634 <queue_dequeue>
80000a18:	00050713          	mv	a4,a0
80000a1c:	800037b7          	lui	a5,0x80003
80000a20:	84e7a223          	sw	a4,-1980(a5) # 80002844 <curr_thread>
80000a24:	800037b7          	lui	a5,0x80003
80000a28:	8447a783          	lw	a5,-1980(a5) # 80002844 <curr_thread>
80000a2c:	00300713          	li	a4,3
80000a30:	00e7a023          	sw	a4,0(a5)
80000a34:	fec42783          	lw	a5,-20(s0)
80000a38:	00878713          	addi	a4,a5,8
80000a3c:	800037b7          	lui	a5,0x80003
80000a40:	8447a783          	lw	a5,-1980(a5) # 80002844 <curr_thread>
80000a44:	0087a783          	lw	a5,8(a5)
80000a48:	00078593          	mv	a1,a5
80000a4c:	00070513          	mv	a0,a4
80000a50:	e4cff0ef          	jal	8000009c <ctx_switch>
80000a54:	01c12083          	lw	ra,28(sp)
80000a58:	01812403          	lw	s0,24(sp)
80000a5c:	02010113          	addi	sp,sp,32
80000a60:	00008067          	ret

80000a64 <cv_init>:
cv_init():
80000a64:	fe010113          	addi	sp,sp,-32
80000a68:	00112e23          	sw	ra,28(sp)
80000a6c:	00812c23          	sw	s0,24(sp)
80000a70:	02010413          	addi	s0,sp,32
80000a74:	fea42623          	sw	a0,-20(s0)
80000a78:	a9dff0ef          	jal	80000514 <queue_new>
80000a7c:	00050713          	mv	a4,a0
80000a80:	fec42783          	lw	a5,-20(s0)
80000a84:	00e7a023          	sw	a4,0(a5)
80000a88:	00000013          	nop
80000a8c:	01c12083          	lw	ra,28(sp)
80000a90:	01812403          	lw	s0,24(sp)
80000a94:	02010113          	addi	sp,sp,32
80000a98:	00008067          	ret

80000a9c <cv_wait>:
cv_wait():
80000a9c:	fe010113          	addi	sp,sp,-32
80000aa0:	00112e23          	sw	ra,28(sp)
80000aa4:	00812c23          	sw	s0,24(sp)
80000aa8:	02010413          	addi	s0,sp,32
80000aac:	fea42623          	sw	a0,-20(s0)
80000ab0:	800037b7          	lui	a5,0x80003
80000ab4:	8447a783          	lw	a5,-1980(a5) # 80002844 <curr_thread>
80000ab8:	00100713          	li	a4,1
80000abc:	00e7a023          	sw	a4,0(a5)
80000ac0:	fec42783          	lw	a5,-20(s0)
80000ac4:	0007a703          	lw	a4,0(a5)
80000ac8:	800037b7          	lui	a5,0x80003
80000acc:	8447a783          	lw	a5,-1980(a5) # 80002844 <curr_thread>
80000ad0:	00078593          	mv	a1,a5
80000ad4:	00070513          	mv	a0,a4
80000ad8:	a9dff0ef          	jal	80000574 <queue_enqueue>
80000adc:	e81ff0ef          	jal	8000095c <thread_yield>
80000ae0:	00000013          	nop
80000ae4:	01c12083          	lw	ra,28(sp)
80000ae8:	01812403          	lw	s0,24(sp)
80000aec:	02010113          	addi	sp,sp,32
80000af0:	00008067          	ret

80000af4 <cv_signal>:
cv_signal():
80000af4:	fd010113          	addi	sp,sp,-48
80000af8:	02112623          	sw	ra,44(sp)
80000afc:	02812423          	sw	s0,40(sp)
80000b00:	03010413          	addi	s0,sp,48
80000b04:	fca42e23          	sw	a0,-36(s0)
80000b08:	fdc42783          	lw	a5,-36(s0)
80000b0c:	0007a783          	lw	a5,0(a5)
80000b10:	00078513          	mv	a0,a5
80000b14:	bcdff0ef          	jal	800006e0 <queue_length>
80000b18:	00050793          	mv	a5,a0
80000b1c:	04078663          	beqz	a5,80000b68 <cv_signal+0x74>
80000b20:	01400513          	li	a0,20
80000b24:	450000ef          	jal	80000f74 <malloc>
80000b28:	00050793          	mv	a5,a0
80000b2c:	fef42623          	sw	a5,-20(s0)
80000b30:	fdc42783          	lw	a5,-36(s0)
80000b34:	0007a783          	lw	a5,0(a5)
80000b38:	00078513          	mv	a0,a5
80000b3c:	af9ff0ef          	jal	80000634 <queue_dequeue>
80000b40:	fea42623          	sw	a0,-20(s0)
80000b44:	fec42783          	lw	a5,-20(s0)
80000b48:	00200713          	li	a4,2
80000b4c:	00e7a023          	sw	a4,0(a5)
80000b50:	800037b7          	lui	a5,0x80003
80000b54:	8407a783          	lw	a5,-1984(a5) # 80002840 <runQueue>
80000b58:	fec42583          	lw	a1,-20(s0)
80000b5c:	00078513          	mv	a0,a5
80000b60:	a15ff0ef          	jal	80000574 <queue_enqueue>
80000b64:	0080006f          	j	80000b6c <cv_signal+0x78>
80000b68:	00000013          	nop
80000b6c:	02c12083          	lw	ra,44(sp)
80000b70:	02812403          	lw	s0,40(sp)
80000b74:	03010113          	addi	sp,sp,48
80000b78:	00008067          	ret

80000b7c <thread_exit>:
thread_exit():
80000b7c:	ff010113          	addi	sp,sp,-16
80000b80:	00112623          	sw	ra,12(sp)
80000b84:	00812423          	sw	s0,8(sp)
80000b88:	01010413          	addi	s0,sp,16
80000b8c:	800037b7          	lui	a5,0x80003
80000b90:	8447a783          	lw	a5,-1980(a5) # 80002844 <curr_thread>
80000b94:	00400713          	li	a4,4
80000b98:	00e7a023          	sw	a4,0(a5)
80000b9c:	dc1ff0ef          	jal	8000095c <thread_yield>
80000ba0:	00000013          	nop
80000ba4:	00c12083          	lw	ra,12(sp)
80000ba8:	00812403          	lw	s0,8(sp)
80000bac:	01010113          	addi	sp,sp,16
80000bb0:	00008067          	ret

80000bb4 <ctx_entry>:
ctx_entry():
80000bb4:	ff010113          	addi	sp,sp,-16
80000bb8:	00112623          	sw	ra,12(sp)
80000bbc:	00812423          	sw	s0,8(sp)
80000bc0:	01010413          	addi	s0,sp,16
80000bc4:	800037b7          	lui	a5,0x80003
80000bc8:	8447a783          	lw	a5,-1980(a5) # 80002844 <curr_thread>
80000bcc:	00c7a783          	lw	a5,12(a5)
80000bd0:	80003737          	lui	a4,0x80003
80000bd4:	84472703          	lw	a4,-1980(a4) # 80002844 <curr_thread>
80000bd8:	01072703          	lw	a4,16(a4)
80000bdc:	00070513          	mv	a0,a4
80000be0:	000780e7          	jalr	a5
80000be4:	f99ff0ef          	jal	80000b7c <thread_exit>
80000be8:	00000013          	nop
80000bec:	00c12083          	lw	ra,12(sp)
80000bf0:	00812403          	lw	s0,8(sp)
80000bf4:	01010113          	addi	sp,sp,16
80000bf8:	00008067          	ret

80000bfc <produce>:
produce():
80000bfc:	fe010113          	addi	sp,sp,-32
80000c00:	00112e23          	sw	ra,28(sp)
80000c04:	00812c23          	sw	s0,24(sp)
80000c08:	02010413          	addi	s0,sp,32
80000c0c:	fea42623          	sw	a0,-20(s0)
80000c10:	01c0006f          	j	80000c2c <produce+0x30>
80000c14:	800027b7          	lui	a5,0x80002
80000c18:	27078513          	addi	a0,a5,624 # 80002270 <__modsi3+0x184>
80000c1c:	861ff0ef          	jal	8000047c <printf>
80000c20:	800037b7          	lui	a5,0x80003
80000c24:	85c78513          	addi	a0,a5,-1956 # 8000285c <nonfull>
80000c28:	e75ff0ef          	jal	80000a9c <cv_wait>
80000c2c:	800037b7          	lui	a5,0x80003
80000c30:	84c7a703          	lw	a4,-1972(a5) # 8000284c <count>
80000c34:	00300793          	li	a5,3
80000c38:	fcf70ee3          	beq	a4,a5,80000c14 <produce+0x18>
80000c3c:	800037b7          	lui	a5,0x80003
80000c40:	8547a783          	lw	a5,-1964(a5) # 80002854 <tail>
80000c44:	80003737          	lui	a4,0x80003
80000c48:	87470713          	addi	a4,a4,-1932 # 80002874 <buffer>
80000c4c:	00279793          	slli	a5,a5,0x2
80000c50:	00f707b3          	add	a5,a4,a5
80000c54:	fec42703          	lw	a4,-20(s0)
80000c58:	00e7a023          	sw	a4,0(a5)
80000c5c:	800037b7          	lui	a5,0x80003
80000c60:	8547a783          	lw	a5,-1964(a5) # 80002854 <tail>
80000c64:	00178693          	addi	a3,a5,1
80000c68:	555557b7          	lui	a5,0x55555
80000c6c:	55678793          	addi	a5,a5,1366 # 55555556 <_start-0x2aaaaaaa>
80000c70:	02f69733          	mulh	a4,a3,a5
80000c74:	41f6d793          	srai	a5,a3,0x1f
80000c78:	40f70733          	sub	a4,a4,a5
80000c7c:	00070793          	mv	a5,a4
80000c80:	00179793          	slli	a5,a5,0x1
80000c84:	00e787b3          	add	a5,a5,a4
80000c88:	40f68733          	sub	a4,a3,a5
80000c8c:	800037b7          	lui	a5,0x80003
80000c90:	84e7aa23          	sw	a4,-1964(a5) # 80002854 <tail>
80000c94:	800037b7          	lui	a5,0x80003
80000c98:	84c7a783          	lw	a5,-1972(a5) # 8000284c <count>
80000c9c:	00178713          	addi	a4,a5,1
80000ca0:	800037b7          	lui	a5,0x80003
80000ca4:	84e7a623          	sw	a4,-1972(a5) # 8000284c <count>
80000ca8:	fec42783          	lw	a5,-20(s0)
80000cac:	0007a783          	lw	a5,0(a5)
80000cb0:	00078593          	mv	a1,a5
80000cb4:	800027b7          	lui	a5,0x80002
80000cb8:	29878513          	addi	a0,a5,664 # 80002298 <__modsi3+0x1ac>
80000cbc:	fc0ff0ef          	jal	8000047c <printf>
80000cc0:	800037b7          	lui	a5,0x80003
80000cc4:	85878513          	addi	a0,a5,-1960 # 80002858 <nonempty>
80000cc8:	e2dff0ef          	jal	80000af4 <cv_signal>
80000ccc:	eb1ff0ef          	jal	80000b7c <thread_exit>
80000cd0:	00000013          	nop
80000cd4:	01c12083          	lw	ra,28(sp)
80000cd8:	01812403          	lw	s0,24(sp)
80000cdc:	02010113          	addi	sp,sp,32
80000ce0:	00008067          	ret

80000ce4 <consume>:
consume():
80000ce4:	fd010113          	addi	sp,sp,-48
80000ce8:	02112623          	sw	ra,44(sp)
80000cec:	02812423          	sw	s0,40(sp)
80000cf0:	03010413          	addi	s0,sp,48
80000cf4:	fca42e23          	sw	a0,-36(s0)
80000cf8:	01c0006f          	j	80000d14 <consume+0x30>
80000cfc:	800027b7          	lui	a5,0x80002
80000d00:	2a878513          	addi	a0,a5,680 # 800022a8 <__modsi3+0x1bc>
80000d04:	f78ff0ef          	jal	8000047c <printf>
80000d08:	800037b7          	lui	a5,0x80003
80000d0c:	85878513          	addi	a0,a5,-1960 # 80002858 <nonempty>
80000d10:	d8dff0ef          	jal	80000a9c <cv_wait>
80000d14:	800037b7          	lui	a5,0x80003
80000d18:	84c7a783          	lw	a5,-1972(a5) # 8000284c <count>
80000d1c:	fe0780e3          	beqz	a5,80000cfc <consume+0x18>
80000d20:	800037b7          	lui	a5,0x80003
80000d24:	8507a783          	lw	a5,-1968(a5) # 80002850 <head>
80000d28:	80003737          	lui	a4,0x80003
80000d2c:	87470713          	addi	a4,a4,-1932 # 80002874 <buffer>
80000d30:	00279793          	slli	a5,a5,0x2
80000d34:	00f707b3          	add	a5,a4,a5
80000d38:	0007a783          	lw	a5,0(a5)
80000d3c:	fef42623          	sw	a5,-20(s0)
80000d40:	800037b7          	lui	a5,0x80003
80000d44:	8507a783          	lw	a5,-1968(a5) # 80002850 <head>
80000d48:	00178693          	addi	a3,a5,1
80000d4c:	555557b7          	lui	a5,0x55555
80000d50:	55678793          	addi	a5,a5,1366 # 55555556 <_start-0x2aaaaaaa>
80000d54:	02f69733          	mulh	a4,a3,a5
80000d58:	41f6d793          	srai	a5,a3,0x1f
80000d5c:	40f70733          	sub	a4,a4,a5
80000d60:	00070793          	mv	a5,a4
80000d64:	00179793          	slli	a5,a5,0x1
80000d68:	00e787b3          	add	a5,a5,a4
80000d6c:	40f68733          	sub	a4,a3,a5
80000d70:	800037b7          	lui	a5,0x80003
80000d74:	84e7a823          	sw	a4,-1968(a5) # 80002850 <head>
80000d78:	800037b7          	lui	a5,0x80003
80000d7c:	84c7a783          	lw	a5,-1972(a5) # 8000284c <count>
80000d80:	fff78713          	addi	a4,a5,-1
80000d84:	800037b7          	lui	a5,0x80003
80000d88:	84e7a623          	sw	a4,-1972(a5) # 8000284c <count>
80000d8c:	fec42783          	lw	a5,-20(s0)
80000d90:	0007a783          	lw	a5,0(a5)
80000d94:	00078593          	mv	a1,a5
80000d98:	800027b7          	lui	a5,0x80002
80000d9c:	2d078513          	addi	a0,a5,720 # 800022d0 <__modsi3+0x1e4>
80000da0:	edcff0ef          	jal	8000047c <printf>
80000da4:	800037b7          	lui	a5,0x80003
80000da8:	85c78513          	addi	a0,a5,-1956 # 8000285c <nonfull>
80000dac:	d49ff0ef          	jal	80000af4 <cv_signal>
80000db0:	dcdff0ef          	jal	80000b7c <thread_exit>
80000db4:	00000013          	nop
80000db8:	02c12083          	lw	ra,44(sp)
80000dbc:	02812403          	lw	s0,40(sp)
80000dc0:	03010113          	addi	sp,sp,48
80000dc4:	00008067          	ret

80000dc8 <test3>:
test3():
80000dc8:	fe010113          	addi	sp,sp,-32
80000dcc:	00112e23          	sw	ra,28(sp)
80000dd0:	00812c23          	sw	s0,24(sp)
80000dd4:	02010413          	addi	s0,sp,32
80000dd8:	9edff0ef          	jal	800007c4 <thread_init>
80000ddc:	800037b7          	lui	a5,0x80003
80000de0:	85878513          	addi	a0,a5,-1960 # 80002858 <nonempty>
80000de4:	c81ff0ef          	jal	80000a64 <cv_init>
80000de8:	800037b7          	lui	a5,0x80003
80000dec:	85c78513          	addi	a0,a5,-1956 # 8000285c <nonfull>
80000df0:	c75ff0ef          	jal	80000a64 <cv_init>
80000df4:	00400513          	li	a0,4
80000df8:	17c000ef          	jal	80000f74 <malloc>
80000dfc:	00050793          	mv	a5,a0
80000e00:	fef42623          	sw	a5,-20(s0)
80000e04:	00400513          	li	a0,4
80000e08:	16c000ef          	jal	80000f74 <malloc>
80000e0c:	00050793          	mv	a5,a0
80000e10:	fef42423          	sw	a5,-24(s0)
80000e14:	00400513          	li	a0,4
80000e18:	15c000ef          	jal	80000f74 <malloc>
80000e1c:	00050793          	mv	a5,a0
80000e20:	fef42223          	sw	a5,-28(s0)
80000e24:	fec42783          	lw	a5,-20(s0)
80000e28:	00100713          	li	a4,1
80000e2c:	00e7a023          	sw	a4,0(a5)
80000e30:	fe842783          	lw	a5,-24(s0)
80000e34:	00200713          	li	a4,2
80000e38:	00e7a023          	sw	a4,0(a5)
80000e3c:	fe442783          	lw	a5,-28(s0)
80000e40:	00300713          	li	a4,3
80000e44:	00e7a023          	sw	a4,0(a5)
80000e48:	00000593          	li	a1,0
80000e4c:	800017b7          	lui	a5,0x80001
80000e50:	ce478513          	addi	a0,a5,-796 # 80000ce4 <consume>
80000e54:	9f5ff0ef          	jal	80000848 <thread_create>
80000e58:	00000593          	li	a1,0
80000e5c:	800017b7          	lui	a5,0x80001
80000e60:	ce478513          	addi	a0,a5,-796 # 80000ce4 <consume>
80000e64:	9e5ff0ef          	jal	80000848 <thread_create>
80000e68:	00000593          	li	a1,0
80000e6c:	800017b7          	lui	a5,0x80001
80000e70:	ce478513          	addi	a0,a5,-796 # 80000ce4 <consume>
80000e74:	9d5ff0ef          	jal	80000848 <thread_create>
80000e78:	fec42583          	lw	a1,-20(s0)
80000e7c:	800017b7          	lui	a5,0x80001
80000e80:	bfc78513          	addi	a0,a5,-1028 # 80000bfc <produce>
80000e84:	9c5ff0ef          	jal	80000848 <thread_create>
80000e88:	fe842583          	lw	a1,-24(s0)
80000e8c:	800017b7          	lui	a5,0x80001
80000e90:	bfc78513          	addi	a0,a5,-1028 # 80000bfc <produce>
80000e94:	9b5ff0ef          	jal	80000848 <thread_create>
80000e98:	fe442583          	lw	a1,-28(s0)
80000e9c:	800017b7          	lui	a5,0x80001
80000ea0:	bfc78513          	addi	a0,a5,-1028 # 80000bfc <produce>
80000ea4:	9a5ff0ef          	jal	80000848 <thread_create>
80000ea8:	cd5ff0ef          	jal	80000b7c <thread_exit>
80000eac:	fec42503          	lw	a0,-20(s0)
80000eb0:	0d4000ef          	jal	80000f84 <free>
80000eb4:	fe842503          	lw	a0,-24(s0)
80000eb8:	0cc000ef          	jal	80000f84 <free>
80000ebc:	fe442503          	lw	a0,-28(s0)
80000ec0:	0c4000ef          	jal	80000f84 <free>
80000ec4:	00000013          	nop
80000ec8:	01c12083          	lw	ra,28(sp)
80000ecc:	01812403          	lw	s0,24(sp)
80000ed0:	02010113          	addi	sp,sp,32
80000ed4:	00008067          	ret

80000ed8 <main>:
main():
80000ed8:	ff010113          	addi	sp,sp,-16
80000edc:	00112623          	sw	ra,12(sp)
80000ee0:	00812423          	sw	s0,8(sp)
80000ee4:	01010413          	addi	s0,sp,16
80000ee8:	ee1ff0ef          	jal	80000dc8 <test3>
80000eec:	00000793          	li	a5,0
80000ef0:	00078513          	mv	a0,a5
80000ef4:	00c12083          	lw	ra,12(sp)
80000ef8:	00812403          	lw	s0,8(sp)
80000efc:	01010113          	addi	sp,sp,16
80000f00:	00008067          	ret

80000f04 <itoa>:
itoa():
80000f04:	ff010113          	addi	sp,sp,-16
80000f08:	00812423          	sw	s0,8(sp)
80000f0c:	00112623          	sw	ra,12(sp)
80000f10:	ffe60713          	addi	a4,a2,-2
80000f14:	02200793          	li	a5,34
80000f18:	00058413          	mv	s0,a1
80000f1c:	04e7e063          	bltu	a5,a4,80000f5c <itoa+0x58>
80000f20:	00a00793          	li	a5,10
80000f24:	02f60063          	beq	a2,a5,80000f44 <itoa+0x40>
80000f28:	00040593          	mv	a1,s0
80000f2c:	0ad000ef          	jal	800017d8 <__utoa>
80000f30:	00c12083          	lw	ra,12(sp)
80000f34:	00040513          	mv	a0,s0
80000f38:	00812403          	lw	s0,8(sp)
80000f3c:	01010113          	addi	sp,sp,16
80000f40:	00008067          	ret
80000f44:	fe0552e3          	bgez	a0,80000f28 <itoa+0x24>
80000f48:	02d00793          	li	a5,45
80000f4c:	00f58023          	sb	a5,0(a1)
80000f50:	40a00533          	neg	a0,a0
80000f54:	00158593          	addi	a1,a1,1
80000f58:	fd5ff06f          	j	80000f2c <itoa+0x28>
80000f5c:	00058023          	sb	zero,0(a1)
80000f60:	00c12083          	lw	ra,12(sp)
80000f64:	00812403          	lw	s0,8(sp)
80000f68:	00000513          	li	a0,0
80000f6c:	01010113          	addi	sp,sp,16
80000f70:	00008067          	ret

80000f74 <malloc>:
malloc():
80000f74:	00050593          	mv	a1,a0
80000f78:	00002517          	auipc	a0,0x2
80000f7c:	8c452503          	lw	a0,-1852(a0) # 8000283c <_impure_ptr>
80000f80:	0140006f          	j	80000f94 <_malloc_r>

80000f84 <free>:
free():
80000f84:	00050593          	mv	a1,a0
80000f88:	00002517          	auipc	a0,0x2
80000f8c:	8b452503          	lw	a0,-1868(a0) # 8000283c <_impure_ptr>
80000f90:	5e10006f          	j	80001d70 <_free_r>

80000f94 <_malloc_r>:
_malloc_r():
80000f94:	fd010113          	addi	sp,sp,-48
80000f98:	03212023          	sw	s2,32(sp)
80000f9c:	02112623          	sw	ra,44(sp)
80000fa0:	02812423          	sw	s0,40(sp)
80000fa4:	02912223          	sw	s1,36(sp)
80000fa8:	01312e23          	sw	s3,28(sp)
80000fac:	00b58793          	addi	a5,a1,11
80000fb0:	01600713          	li	a4,22
80000fb4:	00050913          	mv	s2,a0
80000fb8:	08f76063          	bltu	a4,a5,80001038 <_malloc_r+0xa4>
80000fbc:	01000493          	li	s1,16
80000fc0:	20b4e463          	bltu	s1,a1,800011c8 <_malloc_r+0x234>
80000fc4:	7fc000ef          	jal	800017c0 <__malloc_lock>
80000fc8:	01800793          	li	a5,24
80000fcc:	00200593          	li	a1,2
80000fd0:	00001997          	auipc	s3,0x1
80000fd4:	33898993          	addi	s3,s3,824 # 80002308 <__malloc_av_>
80000fd8:	00f987b3          	add	a5,s3,a5
80000fdc:	0047a403          	lw	s0,4(a5)
80000fe0:	ff878713          	addi	a4,a5,-8
80000fe4:	46e40663          	beq	s0,a4,80001450 <_malloc_r+0x4bc>
80000fe8:	00442783          	lw	a5,4(s0)
80000fec:	00c42683          	lw	a3,12(s0)
80000ff0:	00842603          	lw	a2,8(s0)
80000ff4:	ffc7f793          	andi	a5,a5,-4
80000ff8:	00f407b3          	add	a5,s0,a5
80000ffc:	0047a703          	lw	a4,4(a5)
80001000:	00d62623          	sw	a3,12(a2)
80001004:	00c6a423          	sw	a2,8(a3)
80001008:	00176713          	ori	a4,a4,1
8000100c:	00090513          	mv	a0,s2
80001010:	00e7a223          	sw	a4,4(a5)
80001014:	7b8000ef          	jal	800017cc <__malloc_unlock>
80001018:	02c12083          	lw	ra,44(sp)
8000101c:	00840513          	addi	a0,s0,8
80001020:	02812403          	lw	s0,40(sp)
80001024:	02412483          	lw	s1,36(sp)
80001028:	02012903          	lw	s2,32(sp)
8000102c:	01c12983          	lw	s3,28(sp)
80001030:	03010113          	addi	sp,sp,48
80001034:	00008067          	ret
80001038:	ff87f493          	andi	s1,a5,-8
8000103c:	1807c663          	bltz	a5,800011c8 <_malloc_r+0x234>
80001040:	18b4e463          	bltu	s1,a1,800011c8 <_malloc_r+0x234>
80001044:	77c000ef          	jal	800017c0 <__malloc_lock>
80001048:	1f700793          	li	a5,503
8000104c:	5097fc63          	bgeu	a5,s1,80001564 <_malloc_r+0x5d0>
80001050:	0094d793          	srli	a5,s1,0x9
80001054:	18078e63          	beqz	a5,800011f0 <_malloc_r+0x25c>
80001058:	00400713          	li	a4,4
8000105c:	46f76263          	bltu	a4,a5,800014c0 <_malloc_r+0x52c>
80001060:	0064d793          	srli	a5,s1,0x6
80001064:	03978593          	addi	a1,a5,57
80001068:	03878813          	addi	a6,a5,56
8000106c:	00359613          	slli	a2,a1,0x3
80001070:	00001997          	auipc	s3,0x1
80001074:	29898993          	addi	s3,s3,664 # 80002308 <__malloc_av_>
80001078:	00c98633          	add	a2,s3,a2
8000107c:	00462403          	lw	s0,4(a2)
80001080:	ff860613          	addi	a2,a2,-8
80001084:	02860863          	beq	a2,s0,800010b4 <_malloc_r+0x120>
80001088:	00f00513          	li	a0,15
8000108c:	0140006f          	j	800010a0 <_malloc_r+0x10c>
80001090:	00c42683          	lw	a3,12(s0)
80001094:	36075c63          	bgez	a4,8000140c <_malloc_r+0x478>
80001098:	00d60e63          	beq	a2,a3,800010b4 <_malloc_r+0x120>
8000109c:	00068413          	mv	s0,a3
800010a0:	00442783          	lw	a5,4(s0)
800010a4:	ffc7f793          	andi	a5,a5,-4
800010a8:	40978733          	sub	a4,a5,s1
800010ac:	fee552e3          	bge	a0,a4,80001090 <_malloc_r+0xfc>
800010b0:	00080593          	mv	a1,a6
800010b4:	0109a403          	lw	s0,16(s3)
800010b8:	00001897          	auipc	a7,0x1
800010bc:	25888893          	addi	a7,a7,600 # 80002310 <__malloc_av_+0x8>
800010c0:	2d140663          	beq	s0,a7,8000138c <_malloc_r+0x3f8>
800010c4:	00442783          	lw	a5,4(s0)
800010c8:	00f00693          	li	a3,15
800010cc:	ffc7f793          	andi	a5,a5,-4
800010d0:	40978733          	sub	a4,a5,s1
800010d4:	48e6ce63          	blt	a3,a4,80001570 <_malloc_r+0x5dc>
800010d8:	0119aa23          	sw	a7,20(s3)
800010dc:	0119a823          	sw	a7,16(s3)
800010e0:	46075263          	bgez	a4,80001544 <_malloc_r+0x5b0>
800010e4:	1ff00713          	li	a4,511
800010e8:	0049a503          	lw	a0,4(s3)
800010ec:	36f76a63          	bltu	a4,a5,80001460 <_malloc_r+0x4cc>
800010f0:	ff87f713          	andi	a4,a5,-8
800010f4:	00870713          	addi	a4,a4,8
800010f8:	00e98733          	add	a4,s3,a4
800010fc:	00072683          	lw	a3,0(a4)
80001100:	0057d613          	srli	a2,a5,0x5
80001104:	00100793          	li	a5,1
80001108:	00c797b3          	sll	a5,a5,a2
8000110c:	00f56533          	or	a0,a0,a5
80001110:	ff870793          	addi	a5,a4,-8
80001114:	00d42423          	sw	a3,8(s0)
80001118:	00f42623          	sw	a5,12(s0)
8000111c:	00a9a223          	sw	a0,4(s3)
80001120:	00872023          	sw	s0,0(a4)
80001124:	0086a623          	sw	s0,12(a3)
80001128:	4025d793          	srai	a5,a1,0x2
8000112c:	00100613          	li	a2,1
80001130:	00f61633          	sll	a2,a2,a5
80001134:	0cc56663          	bltu	a0,a2,80001200 <_malloc_r+0x26c>
80001138:	00a677b3          	and	a5,a2,a0
8000113c:	02079463          	bnez	a5,80001164 <_malloc_r+0x1d0>
80001140:	00161613          	slli	a2,a2,0x1
80001144:	ffc5f593          	andi	a1,a1,-4
80001148:	00a677b3          	and	a5,a2,a0
8000114c:	00458593          	addi	a1,a1,4
80001150:	00079a63          	bnez	a5,80001164 <_malloc_r+0x1d0>
80001154:	00161613          	slli	a2,a2,0x1
80001158:	00a677b3          	and	a5,a2,a0
8000115c:	00458593          	addi	a1,a1,4
80001160:	fe078ae3          	beqz	a5,80001154 <_malloc_r+0x1c0>
80001164:	00f00813          	li	a6,15
80001168:	00359313          	slli	t1,a1,0x3
8000116c:	00698333          	add	t1,s3,t1
80001170:	00030513          	mv	a0,t1
80001174:	00c52783          	lw	a5,12(a0)
80001178:	00058e13          	mv	t3,a1
8000117c:	36f50463          	beq	a0,a5,800014e4 <_malloc_r+0x550>
80001180:	0047a703          	lw	a4,4(a5)
80001184:	00078413          	mv	s0,a5
80001188:	00c7a783          	lw	a5,12(a5)
8000118c:	ffc77713          	andi	a4,a4,-4
80001190:	409706b3          	sub	a3,a4,s1
80001194:	36d84463          	blt	a6,a3,800014fc <_malloc_r+0x568>
80001198:	fe06c2e3          	bltz	a3,8000117c <_malloc_r+0x1e8>
8000119c:	00e40733          	add	a4,s0,a4
800011a0:	00472683          	lw	a3,4(a4)
800011a4:	00842603          	lw	a2,8(s0)
800011a8:	00090513          	mv	a0,s2
800011ac:	0016e693          	ori	a3,a3,1
800011b0:	00d72223          	sw	a3,4(a4)
800011b4:	00f62623          	sw	a5,12(a2)
800011b8:	00c7a423          	sw	a2,8(a5)
800011bc:	610000ef          	jal	800017cc <__malloc_unlock>
800011c0:	00840513          	addi	a0,s0,8
800011c4:	0100006f          	j	800011d4 <_malloc_r+0x240>
800011c8:	00c00793          	li	a5,12
800011cc:	00f92023          	sw	a5,0(s2)
800011d0:	00000513          	li	a0,0
800011d4:	02c12083          	lw	ra,44(sp)
800011d8:	02812403          	lw	s0,40(sp)
800011dc:	02412483          	lw	s1,36(sp)
800011e0:	02012903          	lw	s2,32(sp)
800011e4:	01c12983          	lw	s3,28(sp)
800011e8:	03010113          	addi	sp,sp,48
800011ec:	00008067          	ret
800011f0:	20000613          	li	a2,512
800011f4:	04000593          	li	a1,64
800011f8:	03f00813          	li	a6,63
800011fc:	e75ff06f          	j	80001070 <_malloc_r+0xdc>
80001200:	0089a403          	lw	s0,8(s3)
80001204:	01612823          	sw	s6,16(sp)
80001208:	00442783          	lw	a5,4(s0)
8000120c:	ffc7fb13          	andi	s6,a5,-4
80001210:	009b6863          	bltu	s6,s1,80001220 <_malloc_r+0x28c>
80001214:	409b0733          	sub	a4,s6,s1
80001218:	00f00793          	li	a5,15
8000121c:	1ae7c663          	blt	a5,a4,800013c8 <_malloc_r+0x434>
80001220:	01912223          	sw	s9,4(sp)
80001224:	00001c97          	auipc	s9,0x1
80001228:	610c8c93          	addi	s9,s9,1552 # 80002834 <__malloc_sbrk_base>
8000122c:	01512a23          	sw	s5,20(sp)
80001230:	000ca703          	lw	a4,0(s9)
80001234:	00001a97          	auipc	s5,0x1
80001238:	634aaa83          	lw	s5,1588(s5) # 80002868 <__malloc_top_pad>
8000123c:	01412c23          	sw	s4,24(sp)
80001240:	01712623          	sw	s7,12(sp)
80001244:	fff00793          	li	a5,-1
80001248:	01640a33          	add	s4,s0,s6
8000124c:	01548ab3          	add	s5,s1,s5
80001250:	3ef70663          	beq	a4,a5,8000163c <_malloc_r+0x6a8>
80001254:	000017b7          	lui	a5,0x1
80001258:	00f78793          	addi	a5,a5,15 # 100f <_start-0x7fffeff1>
8000125c:	00fa8ab3          	add	s5,s5,a5
80001260:	fffff7b7          	lui	a5,0xfffff
80001264:	00fafab3          	and	s5,s5,a5
80001268:	000a8593          	mv	a1,s5
8000126c:	00090513          	mv	a0,s2
80001270:	00d000ef          	jal	80001a7c <_sbrk_r>
80001274:	fff00793          	li	a5,-1
80001278:	00050b93          	mv	s7,a0
8000127c:	48f50463          	beq	a0,a5,80001704 <_malloc_r+0x770>
80001280:	01812423          	sw	s8,8(sp)
80001284:	11456863          	bltu	a0,s4,80001394 <_malloc_r+0x400>
80001288:	00001c17          	auipc	s8,0x1
8000128c:	5f8c0c13          	addi	s8,s8,1528 # 80002880 <__malloc_current_mallinfo>
80001290:	000c2583          	lw	a1,0(s8)
80001294:	00ba85b3          	add	a1,s5,a1
80001298:	00bc2023          	sw	a1,0(s8)
8000129c:	00058713          	mv	a4,a1
800012a0:	46aa0863          	beq	s4,a0,80001710 <_malloc_r+0x77c>
800012a4:	000ca683          	lw	a3,0(s9)
800012a8:	fff00793          	li	a5,-1
800012ac:	48f68063          	beq	a3,a5,8000172c <_malloc_r+0x798>
800012b0:	414b87b3          	sub	a5,s7,s4
800012b4:	00e787b3          	add	a5,a5,a4
800012b8:	00fc2023          	sw	a5,0(s8)
800012bc:	007bfc93          	andi	s9,s7,7
800012c0:	380c8e63          	beqz	s9,8000165c <_malloc_r+0x6c8>
800012c4:	419b8bb3          	sub	s7,s7,s9
800012c8:	000015b7          	lui	a1,0x1
800012cc:	008b8b93          	addi	s7,s7,8
800012d0:	00858593          	addi	a1,a1,8 # 1008 <_start-0x7fffeff8>
800012d4:	015b8ab3          	add	s5,s7,s5
800012d8:	419585b3          	sub	a1,a1,s9
800012dc:	415585b3          	sub	a1,a1,s5
800012e0:	01459593          	slli	a1,a1,0x14
800012e4:	0145da13          	srli	s4,a1,0x14
800012e8:	000a0593          	mv	a1,s4
800012ec:	00090513          	mv	a0,s2
800012f0:	78c000ef          	jal	80001a7c <_sbrk_r>
800012f4:	fff00793          	li	a5,-1
800012f8:	46f50a63          	beq	a0,a5,8000176c <_malloc_r+0x7d8>
800012fc:	41750533          	sub	a0,a0,s7
80001300:	01450ab3          	add	s5,a0,s4
80001304:	000c2703          	lw	a4,0(s8)
80001308:	0179a423          	sw	s7,8(s3)
8000130c:	001ae793          	ori	a5,s5,1
80001310:	00ea05b3          	add	a1,s4,a4
80001314:	00fba223          	sw	a5,4(s7)
80001318:	00bc2023          	sw	a1,0(s8)
8000131c:	03340e63          	beq	s0,s3,80001358 <_malloc_r+0x3c4>
80001320:	00f00693          	li	a3,15
80001324:	3766f263          	bgeu	a3,s6,80001688 <_malloc_r+0x6f4>
80001328:	00442703          	lw	a4,4(s0)
8000132c:	ff4b0793          	addi	a5,s6,-12
80001330:	ff87f793          	andi	a5,a5,-8
80001334:	00177713          	andi	a4,a4,1
80001338:	00f76733          	or	a4,a4,a5
8000133c:	00e42223          	sw	a4,4(s0)
80001340:	00500613          	li	a2,5
80001344:	00f40733          	add	a4,s0,a5
80001348:	00c72223          	sw	a2,4(a4)
8000134c:	00c72423          	sw	a2,8(a4)
80001350:	2cf6ea63          	bltu	a3,a5,80001624 <_malloc_r+0x690>
80001354:	004ba783          	lw	a5,4(s7)
80001358:	00001717          	auipc	a4,0x1
8000135c:	50c70713          	addi	a4,a4,1292 # 80002864 <__malloc_max_sbrked_mem>
80001360:	00072683          	lw	a3,0(a4)
80001364:	00b6f463          	bgeu	a3,a1,8000136c <_malloc_r+0x3d8>
80001368:	00b72023          	sw	a1,0(a4)
8000136c:	00001717          	auipc	a4,0x1
80001370:	4f470713          	addi	a4,a4,1268 # 80002860 <__malloc_max_total_mem>
80001374:	00072683          	lw	a3,0(a4)
80001378:	00b6f463          	bgeu	a3,a1,80001380 <_malloc_r+0x3ec>
8000137c:	00b72023          	sw	a1,0(a4)
80001380:	00812c03          	lw	s8,8(sp)
80001384:	000b8413          	mv	s0,s7
80001388:	01c0006f          	j	800013a4 <_malloc_r+0x410>
8000138c:	0049a503          	lw	a0,4(s3)
80001390:	d99ff06f          	j	80001128 <_malloc_r+0x194>
80001394:	35340c63          	beq	s0,s3,800016ec <_malloc_r+0x758>
80001398:	0089a403          	lw	s0,8(s3)
8000139c:	00812c03          	lw	s8,8(sp)
800013a0:	00442783          	lw	a5,4(s0)
800013a4:	ffc7f793          	andi	a5,a5,-4
800013a8:	40978733          	sub	a4,a5,s1
800013ac:	2e97e463          	bltu	a5,s1,80001694 <_malloc_r+0x700>
800013b0:	00f00793          	li	a5,15
800013b4:	2ee7d063          	bge	a5,a4,80001694 <_malloc_r+0x700>
800013b8:	01812a03          	lw	s4,24(sp)
800013bc:	01412a83          	lw	s5,20(sp)
800013c0:	00c12b83          	lw	s7,12(sp)
800013c4:	00412c83          	lw	s9,4(sp)
800013c8:	0014e793          	ori	a5,s1,1
800013cc:	00f42223          	sw	a5,4(s0)
800013d0:	009404b3          	add	s1,s0,s1
800013d4:	0099a423          	sw	s1,8(s3)
800013d8:	00176713          	ori	a4,a4,1
800013dc:	00090513          	mv	a0,s2
800013e0:	00e4a223          	sw	a4,4(s1)
800013e4:	3e8000ef          	jal	800017cc <__malloc_unlock>
800013e8:	02c12083          	lw	ra,44(sp)
800013ec:	00840513          	addi	a0,s0,8
800013f0:	02812403          	lw	s0,40(sp)
800013f4:	01012b03          	lw	s6,16(sp)
800013f8:	02412483          	lw	s1,36(sp)
800013fc:	02012903          	lw	s2,32(sp)
80001400:	01c12983          	lw	s3,28(sp)
80001404:	03010113          	addi	sp,sp,48
80001408:	00008067          	ret
8000140c:	00842603          	lw	a2,8(s0)
80001410:	00f407b3          	add	a5,s0,a5
80001414:	0047a703          	lw	a4,4(a5) # fffff004 <__heap_max+0x7fdff004>
80001418:	00d62623          	sw	a3,12(a2)
8000141c:	00c6a423          	sw	a2,8(a3)
80001420:	00176713          	ori	a4,a4,1
80001424:	00090513          	mv	a0,s2
80001428:	00e7a223          	sw	a4,4(a5)
8000142c:	3a0000ef          	jal	800017cc <__malloc_unlock>
80001430:	02c12083          	lw	ra,44(sp)
80001434:	00840513          	addi	a0,s0,8
80001438:	02812403          	lw	s0,40(sp)
8000143c:	02412483          	lw	s1,36(sp)
80001440:	02012903          	lw	s2,32(sp)
80001444:	01c12983          	lw	s3,28(sp)
80001448:	03010113          	addi	sp,sp,48
8000144c:	00008067          	ret
80001450:	00c7a403          	lw	s0,12(a5)
80001454:	00258593          	addi	a1,a1,2
80001458:	c4878ee3          	beq	a5,s0,800010b4 <_malloc_r+0x120>
8000145c:	b8dff06f          	j	80000fe8 <_malloc_r+0x54>
80001460:	0097d713          	srli	a4,a5,0x9
80001464:	00400693          	li	a3,4
80001468:	14e6f263          	bgeu	a3,a4,800015ac <_malloc_r+0x618>
8000146c:	01400693          	li	a3,20
80001470:	24e6e263          	bltu	a3,a4,800016b4 <_malloc_r+0x720>
80001474:	05c70613          	addi	a2,a4,92
80001478:	00361613          	slli	a2,a2,0x3
8000147c:	05b70693          	addi	a3,a4,91
80001480:	00c98633          	add	a2,s3,a2
80001484:	00062703          	lw	a4,0(a2)
80001488:	ff860613          	addi	a2,a2,-8
8000148c:	00e61863          	bne	a2,a4,8000149c <_malloc_r+0x508>
80001490:	1b40006f          	j	80001644 <_malloc_r+0x6b0>
80001494:	00872703          	lw	a4,8(a4)
80001498:	00e60863          	beq	a2,a4,800014a8 <_malloc_r+0x514>
8000149c:	00472683          	lw	a3,4(a4)
800014a0:	ffc6f693          	andi	a3,a3,-4
800014a4:	fed7e8e3          	bltu	a5,a3,80001494 <_malloc_r+0x500>
800014a8:	00c72603          	lw	a2,12(a4)
800014ac:	00c42623          	sw	a2,12(s0)
800014b0:	00e42423          	sw	a4,8(s0)
800014b4:	00862423          	sw	s0,8(a2)
800014b8:	00872623          	sw	s0,12(a4)
800014bc:	c6dff06f          	j	80001128 <_malloc_r+0x194>
800014c0:	01400713          	li	a4,20
800014c4:	0ef77e63          	bgeu	a4,a5,800015c0 <_malloc_r+0x62c>
800014c8:	05400713          	li	a4,84
800014cc:	20f76263          	bltu	a4,a5,800016d0 <_malloc_r+0x73c>
800014d0:	00c4d793          	srli	a5,s1,0xc
800014d4:	06f78593          	addi	a1,a5,111
800014d8:	06e78813          	addi	a6,a5,110
800014dc:	00359613          	slli	a2,a1,0x3
800014e0:	b91ff06f          	j	80001070 <_malloc_r+0xdc>
800014e4:	001e0e13          	addi	t3,t3,1
800014e8:	003e7793          	andi	a5,t3,3
800014ec:	00850513          	addi	a0,a0,8
800014f0:	0e078663          	beqz	a5,800015dc <_malloc_r+0x648>
800014f4:	00c52783          	lw	a5,12(a0)
800014f8:	c85ff06f          	j	8000117c <_malloc_r+0x1e8>
800014fc:	00842603          	lw	a2,8(s0)
80001500:	0014e593          	ori	a1,s1,1
80001504:	00b42223          	sw	a1,4(s0)
80001508:	00f62623          	sw	a5,12(a2)
8000150c:	00c7a423          	sw	a2,8(a5)
80001510:	009404b3          	add	s1,s0,s1
80001514:	0099aa23          	sw	s1,20(s3)
80001518:	0099a823          	sw	s1,16(s3)
8000151c:	0016e793          	ori	a5,a3,1
80001520:	00e40733          	add	a4,s0,a4
80001524:	0114a623          	sw	a7,12(s1)
80001528:	0114a423          	sw	a7,8(s1)
8000152c:	00f4a223          	sw	a5,4(s1)
80001530:	00090513          	mv	a0,s2
80001534:	00d72023          	sw	a3,0(a4)
80001538:	294000ef          	jal	800017cc <__malloc_unlock>
8000153c:	00840513          	addi	a0,s0,8
80001540:	c95ff06f          	j	800011d4 <_malloc_r+0x240>
80001544:	00f407b3          	add	a5,s0,a5
80001548:	0047a703          	lw	a4,4(a5)
8000154c:	00090513          	mv	a0,s2
80001550:	00176713          	ori	a4,a4,1
80001554:	00e7a223          	sw	a4,4(a5)
80001558:	274000ef          	jal	800017cc <__malloc_unlock>
8000155c:	00840513          	addi	a0,s0,8
80001560:	c75ff06f          	j	800011d4 <_malloc_r+0x240>
80001564:	0034d593          	srli	a1,s1,0x3
80001568:	00848793          	addi	a5,s1,8
8000156c:	a65ff06f          	j	80000fd0 <_malloc_r+0x3c>
80001570:	0014e693          	ori	a3,s1,1
80001574:	00d42223          	sw	a3,4(s0)
80001578:	009404b3          	add	s1,s0,s1
8000157c:	0099aa23          	sw	s1,20(s3)
80001580:	0099a823          	sw	s1,16(s3)
80001584:	00176693          	ori	a3,a4,1
80001588:	00f407b3          	add	a5,s0,a5
8000158c:	0114a623          	sw	a7,12(s1)
80001590:	0114a423          	sw	a7,8(s1)
80001594:	00d4a223          	sw	a3,4(s1)
80001598:	00090513          	mv	a0,s2
8000159c:	00e7a023          	sw	a4,0(a5)
800015a0:	22c000ef          	jal	800017cc <__malloc_unlock>
800015a4:	00840513          	addi	a0,s0,8
800015a8:	c2dff06f          	j	800011d4 <_malloc_r+0x240>
800015ac:	0067d713          	srli	a4,a5,0x6
800015b0:	03970613          	addi	a2,a4,57
800015b4:	00361613          	slli	a2,a2,0x3
800015b8:	03870693          	addi	a3,a4,56
800015bc:	ec5ff06f          	j	80001480 <_malloc_r+0x4ec>
800015c0:	05c78593          	addi	a1,a5,92
800015c4:	05b78813          	addi	a6,a5,91
800015c8:	00359613          	slli	a2,a1,0x3
800015cc:	aa5ff06f          	j	80001070 <_malloc_r+0xdc>
800015d0:	00832783          	lw	a5,8(t1)
800015d4:	fff58593          	addi	a1,a1,-1
800015d8:	1e679063          	bne	a5,t1,800017b8 <_malloc_r+0x824>
800015dc:	0035f793          	andi	a5,a1,3
800015e0:	ff830313          	addi	t1,t1,-8
800015e4:	fe0796e3          	bnez	a5,800015d0 <_malloc_r+0x63c>
800015e8:	0049a703          	lw	a4,4(s3)
800015ec:	fff64793          	not	a5,a2
800015f0:	00e7f7b3          	and	a5,a5,a4
800015f4:	00f9a223          	sw	a5,4(s3)
800015f8:	00161613          	slli	a2,a2,0x1
800015fc:	c0c7e2e3          	bltu	a5,a2,80001200 <_malloc_r+0x26c>
80001600:	c00600e3          	beqz	a2,80001200 <_malloc_r+0x26c>
80001604:	00f67733          	and	a4,a2,a5
80001608:	00071a63          	bnez	a4,8000161c <_malloc_r+0x688>
8000160c:	00161613          	slli	a2,a2,0x1
80001610:	00f67733          	and	a4,a2,a5
80001614:	004e0e13          	addi	t3,t3,4
80001618:	fe070ae3          	beqz	a4,8000160c <_malloc_r+0x678>
8000161c:	000e0593          	mv	a1,t3
80001620:	b49ff06f          	j	80001168 <_malloc_r+0x1d4>
80001624:	00840593          	addi	a1,s0,8
80001628:	00090513          	mv	a0,s2
8000162c:	744000ef          	jal	80001d70 <_free_r>
80001630:	000c2583          	lw	a1,0(s8)
80001634:	0089ab83          	lw	s7,8(s3)
80001638:	d1dff06f          	j	80001354 <_malloc_r+0x3c0>
8000163c:	010a8a93          	addi	s5,s5,16
80001640:	c29ff06f          	j	80001268 <_malloc_r+0x2d4>
80001644:	4026d693          	srai	a3,a3,0x2
80001648:	00100793          	li	a5,1
8000164c:	00d797b3          	sll	a5,a5,a3
80001650:	00f56533          	or	a0,a0,a5
80001654:	00a9a223          	sw	a0,4(s3)
80001658:	e55ff06f          	j	800014ac <_malloc_r+0x518>
8000165c:	015b85b3          	add	a1,s7,s5
80001660:	40b005b3          	neg	a1,a1
80001664:	01459593          	slli	a1,a1,0x14
80001668:	0145da13          	srli	s4,a1,0x14
8000166c:	000a0593          	mv	a1,s4
80001670:	00090513          	mv	a0,s2
80001674:	408000ef          	jal	80001a7c <_sbrk_r>
80001678:	fff00793          	li	a5,-1
8000167c:	c8f510e3          	bne	a0,a5,800012fc <_malloc_r+0x368>
80001680:	00000a13          	li	s4,0
80001684:	c81ff06f          	j	80001304 <_malloc_r+0x370>
80001688:	00812c03          	lw	s8,8(sp)
8000168c:	00100793          	li	a5,1
80001690:	00fba223          	sw	a5,4(s7)
80001694:	00090513          	mv	a0,s2
80001698:	134000ef          	jal	800017cc <__malloc_unlock>
8000169c:	01812a03          	lw	s4,24(sp)
800016a0:	01412a83          	lw	s5,20(sp)
800016a4:	01012b03          	lw	s6,16(sp)
800016a8:	00c12b83          	lw	s7,12(sp)
800016ac:	00412c83          	lw	s9,4(sp)
800016b0:	b21ff06f          	j	800011d0 <_malloc_r+0x23c>
800016b4:	05400693          	li	a3,84
800016b8:	06e6ee63          	bltu	a3,a4,80001734 <_malloc_r+0x7a0>
800016bc:	00c7d713          	srli	a4,a5,0xc
800016c0:	06f70613          	addi	a2,a4,111
800016c4:	00361613          	slli	a2,a2,0x3
800016c8:	06e70693          	addi	a3,a4,110
800016cc:	db5ff06f          	j	80001480 <_malloc_r+0x4ec>
800016d0:	15400713          	li	a4,340
800016d4:	06f76e63          	bltu	a4,a5,80001750 <_malloc_r+0x7bc>
800016d8:	00f4d793          	srli	a5,s1,0xf
800016dc:	07878593          	addi	a1,a5,120
800016e0:	07778813          	addi	a6,a5,119
800016e4:	00359613          	slli	a2,a1,0x3
800016e8:	989ff06f          	j	80001070 <_malloc_r+0xdc>
800016ec:	00001c17          	auipc	s8,0x1
800016f0:	194c0c13          	addi	s8,s8,404 # 80002880 <__malloc_current_mallinfo>
800016f4:	000c2703          	lw	a4,0(s8)
800016f8:	00ea8733          	add	a4,s5,a4
800016fc:	00ec2023          	sw	a4,0(s8)
80001700:	ba5ff06f          	j	800012a4 <_malloc_r+0x310>
80001704:	0089a403          	lw	s0,8(s3)
80001708:	00442783          	lw	a5,4(s0)
8000170c:	c99ff06f          	j	800013a4 <_malloc_r+0x410>
80001710:	01451793          	slli	a5,a0,0x14
80001714:	b80798e3          	bnez	a5,800012a4 <_malloc_r+0x310>
80001718:	0089ab83          	lw	s7,8(s3)
8000171c:	015b07b3          	add	a5,s6,s5
80001720:	0017e793          	ori	a5,a5,1
80001724:	00fba223          	sw	a5,4(s7)
80001728:	c31ff06f          	j	80001358 <_malloc_r+0x3c4>
8000172c:	017ca023          	sw	s7,0(s9)
80001730:	b8dff06f          	j	800012bc <_malloc_r+0x328>
80001734:	15400693          	li	a3,340
80001738:	04e6e463          	bltu	a3,a4,80001780 <_malloc_r+0x7ec>
8000173c:	00f7d713          	srli	a4,a5,0xf
80001740:	07870613          	addi	a2,a4,120
80001744:	00361613          	slli	a2,a2,0x3
80001748:	07770693          	addi	a3,a4,119
8000174c:	d35ff06f          	j	80001480 <_malloc_r+0x4ec>
80001750:	55400713          	li	a4,1364
80001754:	04f76463          	bltu	a4,a5,8000179c <_malloc_r+0x808>
80001758:	0124d793          	srli	a5,s1,0x12
8000175c:	07d78593          	addi	a1,a5,125
80001760:	07c78813          	addi	a6,a5,124
80001764:	00359613          	slli	a2,a1,0x3
80001768:	909ff06f          	j	80001070 <_malloc_r+0xdc>
8000176c:	ff8c8c93          	addi	s9,s9,-8
80001770:	019a8ab3          	add	s5,s5,s9
80001774:	417a8ab3          	sub	s5,s5,s7
80001778:	00000a13          	li	s4,0
8000177c:	b89ff06f          	j	80001304 <_malloc_r+0x370>
80001780:	55400693          	li	a3,1364
80001784:	02e6e463          	bltu	a3,a4,800017ac <_malloc_r+0x818>
80001788:	0127d713          	srli	a4,a5,0x12
8000178c:	07d70613          	addi	a2,a4,125
80001790:	00361613          	slli	a2,a2,0x3
80001794:	07c70693          	addi	a3,a4,124
80001798:	ce9ff06f          	j	80001480 <_malloc_r+0x4ec>
8000179c:	3f800613          	li	a2,1016
800017a0:	07f00593          	li	a1,127
800017a4:	07e00813          	li	a6,126
800017a8:	8c9ff06f          	j	80001070 <_malloc_r+0xdc>
800017ac:	3f800613          	li	a2,1016
800017b0:	07e00693          	li	a3,126
800017b4:	ccdff06f          	j	80001480 <_malloc_r+0x4ec>
800017b8:	0049a783          	lw	a5,4(s3)
800017bc:	e3dff06f          	j	800015f8 <_malloc_r+0x664>

800017c0 <__malloc_lock>:
__malloc_lock():
800017c0:	00001517          	auipc	a0,0x1
800017c4:	0ac50513          	addi	a0,a0,172 # 8000286c <__lock___malloc_recursive_mutex>
800017c8:	45c0006f          	j	80001c24 <__retarget_lock_acquire_recursive>

800017cc <__malloc_unlock>:
__malloc_unlock():
800017cc:	00001517          	auipc	a0,0x1
800017d0:	0a050513          	addi	a0,a0,160 # 8000286c <__lock___malloc_recursive_mutex>
800017d4:	4540006f          	j	80001c28 <__retarget_lock_release_recursive>

800017d8 <__utoa>:
__utoa():
800017d8:	00001797          	auipc	a5,0x1
800017dc:	b0878793          	addi	a5,a5,-1272 # 800022e0 <__modsi3+0x1f4>
800017e0:	0007a283          	lw	t0,0(a5)
800017e4:	0047af83          	lw	t6,4(a5)
800017e8:	0087af03          	lw	t5,8(a5)
800017ec:	00c7ae83          	lw	t4,12(a5)
800017f0:	0107ae03          	lw	t3,16(a5)
800017f4:	0147a303          	lw	t1,20(a5)
800017f8:	0187a883          	lw	a7,24(a5)
800017fc:	01c7a803          	lw	a6,28(a5)
80001800:	0207a683          	lw	a3,32(a5)
80001804:	00001797          	auipc	a5,0x1
80001808:	b007c783          	lbu	a5,-1280(a5) # 80002304 <__modsi3+0x218>
8000180c:	fb010113          	addi	sp,sp,-80
80001810:	03512a23          	sw	s5,52(sp)
80001814:	02f10623          	sb	a5,44(sp)
80001818:	04112623          	sw	ra,76(sp)
8000181c:	ffe60713          	addi	a4,a2,-2
80001820:	00512423          	sw	t0,8(sp)
80001824:	01f12623          	sw	t6,12(sp)
80001828:	01e12823          	sw	t5,16(sp)
8000182c:	01d12a23          	sw	t4,20(sp)
80001830:	01c12c23          	sw	t3,24(sp)
80001834:	00612e23          	sw	t1,28(sp)
80001838:	03112023          	sw	a7,32(sp)
8000183c:	03012223          	sw	a6,36(sp)
80001840:	02d12423          	sw	a3,40(sp)
80001844:	02200793          	li	a5,34
80001848:	00058a93          	mv	s5,a1
8000184c:	0ce7e463          	bltu	a5,a4,80001914 <__utoa+0x13c>
80001850:	04812423          	sw	s0,72(sp)
80001854:	04912223          	sw	s1,68(sp)
80001858:	05212023          	sw	s2,64(sp)
8000185c:	03312e23          	sw	s3,60(sp)
80001860:	03412c23          	sw	s4,56(sp)
80001864:	03612823          	sw	s6,48(sp)
80001868:	00060493          	mv	s1,a2
8000186c:	00050413          	mv	s0,a0
80001870:	00000913          	li	s2,0
80001874:	00048593          	mv	a1,s1
80001878:	00040513          	mv	a0,s0
8000187c:	03d000ef          	jal	800020b8 <__umodsi3>
80001880:	00250533          	add	a0,a0,sp
80001884:	00854783          	lbu	a5,8(a0)
80001888:	00090993          	mv	s3,s2
8000188c:	00190913          	addi	s2,s2,1
80001890:	012a8a33          	add	s4,s5,s2
80001894:	00040513          	mv	a0,s0
80001898:	00048593          	mv	a1,s1
8000189c:	fefa0fa3          	sb	a5,-1(s4)
800018a0:	00040b13          	mv	s6,s0
800018a4:	7cc000ef          	jal	80002070 <__hidden___udivsi3>
800018a8:	00050413          	mv	s0,a0
800018ac:	fc9b74e3          	bgeu	s6,s1,80001874 <__utoa+0x9c>
800018b0:	000a0023          	sb	zero,0(s4)
800018b4:	02098a63          	beqz	s3,800018e8 <__utoa+0x110>
800018b8:	000a8693          	mv	a3,s5
800018bc:	013a8733          	add	a4,s5,s3
800018c0:	00000793          	li	a5,0
800018c4:	00074583          	lbu	a1,0(a4)
800018c8:	0006c603          	lbu	a2,0(a3)
800018cc:	00178793          	addi	a5,a5,1
800018d0:	00b68023          	sb	a1,0(a3)
800018d4:	00c70023          	sb	a2,0(a4)
800018d8:	40f98633          	sub	a2,s3,a5
800018dc:	00168693          	addi	a3,a3,1
800018e0:	fff70713          	addi	a4,a4,-1
800018e4:	fec7c0e3          	blt	a5,a2,800018c4 <__utoa+0xec>
800018e8:	04812403          	lw	s0,72(sp)
800018ec:	04c12083          	lw	ra,76(sp)
800018f0:	04412483          	lw	s1,68(sp)
800018f4:	04012903          	lw	s2,64(sp)
800018f8:	03c12983          	lw	s3,60(sp)
800018fc:	03812a03          	lw	s4,56(sp)
80001900:	03012b03          	lw	s6,48(sp)
80001904:	000a8513          	mv	a0,s5
80001908:	03412a83          	lw	s5,52(sp)
8000190c:	05010113          	addi	sp,sp,80
80001910:	00008067          	ret
80001914:	00058023          	sb	zero,0(a1)
80001918:	04c12083          	lw	ra,76(sp)
8000191c:	03412a83          	lw	s5,52(sp)
80001920:	00000513          	li	a0,0
80001924:	05010113          	addi	sp,sp,80
80001928:	00008067          	ret

8000192c <utoa>:
utoa():
8000192c:	eadff06f          	j	800017d8 <__utoa>

80001930 <strcat>:
strcat():
80001930:	ff010113          	addi	sp,sp,-16
80001934:	00812423          	sw	s0,8(sp)
80001938:	00112623          	sw	ra,12(sp)
8000193c:	00357793          	andi	a5,a0,3
80001940:	00050413          	mv	s0,a0
80001944:	06079663          	bnez	a5,800019b0 <strcat+0x80>
80001948:	00052703          	lw	a4,0(a0)
8000194c:	feff0637          	lui	a2,0xfeff0
80001950:	eff60613          	addi	a2,a2,-257 # fefefeff <__heap_max+0x7edefeff>
80001954:	00c707b3          	add	a5,a4,a2
80001958:	808086b7          	lui	a3,0x80808
8000195c:	fff74713          	not	a4,a4
80001960:	00e7f7b3          	and	a5,a5,a4
80001964:	08068693          	addi	a3,a3,128 # 80808080 <__heap_max+0x608080>
80001968:	00d7f7b3          	and	a5,a5,a3
8000196c:	04079263          	bnez	a5,800019b0 <strcat+0x80>
80001970:	00452703          	lw	a4,4(a0)
80001974:	00450513          	addi	a0,a0,4
80001978:	00c707b3          	add	a5,a4,a2
8000197c:	fff74713          	not	a4,a4
80001980:	00e7f7b3          	and	a5,a5,a4
80001984:	00d7f7b3          	and	a5,a5,a3
80001988:	02079463          	bnez	a5,800019b0 <strcat+0x80>
8000198c:	00452703          	lw	a4,4(a0)
80001990:	00450513          	addi	a0,a0,4
80001994:	00c707b3          	add	a5,a4,a2
80001998:	fff74713          	not	a4,a4
8000199c:	00e7f7b3          	and	a5,a5,a4
800019a0:	00d7f7b3          	and	a5,a5,a3
800019a4:	fc0786e3          	beqz	a5,80001970 <strcat+0x40>
800019a8:	0080006f          	j	800019b0 <strcat+0x80>
800019ac:	00150513          	addi	a0,a0,1
800019b0:	00054783          	lbu	a5,0(a0)
800019b4:	fe079ce3          	bnez	a5,800019ac <strcat+0x7c>
800019b8:	1c8000ef          	jal	80001b80 <strcpy>
800019bc:	00c12083          	lw	ra,12(sp)
800019c0:	00040513          	mv	a0,s0
800019c4:	00812403          	lw	s0,8(sp)
800019c8:	01010113          	addi	sp,sp,16
800019cc:	00008067          	ret

800019d0 <strncat>:
strncat():
800019d0:	00357713          	andi	a4,a0,3
800019d4:	00050793          	mv	a5,a0
800019d8:	06071663          	bnez	a4,80001a44 <strncat+0x74>
800019dc:	00052683          	lw	a3,0(a0)
800019e0:	feff08b7          	lui	a7,0xfeff0
800019e4:	eff88893          	addi	a7,a7,-257 # fefefeff <__heap_max+0x7edefeff>
800019e8:	01168733          	add	a4,a3,a7
800019ec:	80808837          	lui	a6,0x80808
800019f0:	fff6c693          	not	a3,a3
800019f4:	00d77733          	and	a4,a4,a3
800019f8:	08080813          	addi	a6,a6,128 # 80808080 <__heap_max+0x608080>
800019fc:	01077733          	and	a4,a4,a6
80001a00:	04071263          	bnez	a4,80001a44 <strncat+0x74>
80001a04:	0047a683          	lw	a3,4(a5)
80001a08:	00478793          	addi	a5,a5,4
80001a0c:	01168733          	add	a4,a3,a7
80001a10:	fff6c693          	not	a3,a3
80001a14:	00d77733          	and	a4,a4,a3
80001a18:	01077733          	and	a4,a4,a6
80001a1c:	02071463          	bnez	a4,80001a44 <strncat+0x74>
80001a20:	0047a683          	lw	a3,4(a5)
80001a24:	00478793          	addi	a5,a5,4
80001a28:	01168733          	add	a4,a3,a7
80001a2c:	fff6c693          	not	a3,a3
80001a30:	00d77733          	and	a4,a4,a3
80001a34:	01077733          	and	a4,a4,a6
80001a38:	fc0706e3          	beqz	a4,80001a04 <strncat+0x34>
80001a3c:	0080006f          	j	80001a44 <strncat+0x74>
80001a40:	00178793          	addi	a5,a5,1
80001a44:	0007c703          	lbu	a4,0(a5)
80001a48:	fe071ce3          	bnez	a4,80001a40 <strncat+0x70>
80001a4c:	00c786b3          	add	a3,a5,a2
80001a50:	02060463          	beqz	a2,80001a78 <strncat+0xa8>
80001a54:	0005c703          	lbu	a4,0(a1)
80001a58:	00178793          	addi	a5,a5,1
80001a5c:	00158593          	addi	a1,a1,1
80001a60:	fee78fa3          	sb	a4,-1(a5)
80001a64:	00070863          	beqz	a4,80001a74 <strncat+0xa4>
80001a68:	fef696e3          	bne	a3,a5,80001a54 <strncat+0x84>
80001a6c:	00068023          	sb	zero,0(a3)
80001a70:	00008067          	ret
80001a74:	00008067          	ret
80001a78:	00008067          	ret

80001a7c <_sbrk_r>:
_sbrk_r():
80001a7c:	ff010113          	addi	sp,sp,-16
80001a80:	00812423          	sw	s0,8(sp)
80001a84:	00050413          	mv	s0,a0
80001a88:	00058513          	mv	a0,a1
80001a8c:	00001797          	auipc	a5,0x1
80001a90:	de07a223          	sw	zero,-540(a5) # 80002870 <errno>
80001a94:	00112623          	sw	ra,12(sp)
80001a98:	c89fe0ef          	jal	80000720 <_sbrk>
80001a9c:	fff00793          	li	a5,-1
80001aa0:	00f50a63          	beq	a0,a5,80001ab4 <_sbrk_r+0x38>
80001aa4:	00c12083          	lw	ra,12(sp)
80001aa8:	00812403          	lw	s0,8(sp)
80001aac:	01010113          	addi	sp,sp,16
80001ab0:	00008067          	ret
80001ab4:	00912223          	sw	s1,4(sp)
80001ab8:	00001497          	auipc	s1,0x1
80001abc:	db848493          	addi	s1,s1,-584 # 80002870 <errno>
80001ac0:	0004a783          	lw	a5,0(s1)
80001ac4:	00078e63          	beqz	a5,80001ae0 <_sbrk_r+0x64>
80001ac8:	00c12083          	lw	ra,12(sp)
80001acc:	00f42023          	sw	a5,0(s0)
80001ad0:	00812403          	lw	s0,8(sp)
80001ad4:	00412483          	lw	s1,4(sp)
80001ad8:	01010113          	addi	sp,sp,16
80001adc:	00008067          	ret
80001ae0:	00c12083          	lw	ra,12(sp)
80001ae4:	00812403          	lw	s0,8(sp)
80001ae8:	00412483          	lw	s1,4(sp)
80001aec:	01010113          	addi	sp,sp,16
80001af0:	00008067          	ret

80001af4 <strlen>:
strlen():
80001af4:	00357793          	andi	a5,a0,3
80001af8:	00050713          	mv	a4,a0
80001afc:	04079c63          	bnez	a5,80001b54 <strlen+0x60>
80001b00:	7f7f86b7          	lui	a3,0x7f7f8
80001b04:	f7f68693          	addi	a3,a3,-129 # 7f7f7f7f <_start-0x808081>
80001b08:	fff00593          	li	a1,-1
80001b0c:	00072603          	lw	a2,0(a4)
80001b10:	00470713          	addi	a4,a4,4
80001b14:	00d677b3          	and	a5,a2,a3
80001b18:	00d787b3          	add	a5,a5,a3
80001b1c:	00c7e7b3          	or	a5,a5,a2
80001b20:	00d7e7b3          	or	a5,a5,a3
80001b24:	feb784e3          	beq	a5,a1,80001b0c <strlen+0x18>
80001b28:	ffc74683          	lbu	a3,-4(a4)
80001b2c:	40a707b3          	sub	a5,a4,a0
80001b30:	04068463          	beqz	a3,80001b78 <strlen+0x84>
80001b34:	ffd74683          	lbu	a3,-3(a4)
80001b38:	02068c63          	beqz	a3,80001b70 <strlen+0x7c>
80001b3c:	ffe74503          	lbu	a0,-2(a4)
80001b40:	00a03533          	snez	a0,a0
80001b44:	00f50533          	add	a0,a0,a5
80001b48:	ffe50513          	addi	a0,a0,-2
80001b4c:	00008067          	ret
80001b50:	fa0688e3          	beqz	a3,80001b00 <strlen+0xc>
80001b54:	00074783          	lbu	a5,0(a4)
80001b58:	00170713          	addi	a4,a4,1
80001b5c:	00377693          	andi	a3,a4,3
80001b60:	fe0798e3          	bnez	a5,80001b50 <strlen+0x5c>
80001b64:	40a70733          	sub	a4,a4,a0
80001b68:	fff70513          	addi	a0,a4,-1
80001b6c:	00008067          	ret
80001b70:	ffd78513          	addi	a0,a5,-3
80001b74:	00008067          	ret
80001b78:	ffc78513          	addi	a0,a5,-4
80001b7c:	00008067          	ret

80001b80 <strcpy>:
strcpy():
80001b80:	00b567b3          	or	a5,a0,a1
80001b84:	0037f793          	andi	a5,a5,3
80001b88:	08079063          	bnez	a5,80001c08 <strcpy+0x88>
80001b8c:	0005a703          	lw	a4,0(a1)
80001b90:	7f7f86b7          	lui	a3,0x7f7f8
80001b94:	f7f68693          	addi	a3,a3,-129 # 7f7f7f7f <_start-0x808081>
80001b98:	00d77833          	and	a6,a4,a3
80001b9c:	00d80833          	add	a6,a6,a3
80001ba0:	00e86833          	or	a6,a6,a4
80001ba4:	00d86833          	or	a6,a6,a3
80001ba8:	fff00793          	li	a5,-1
80001bac:	00050613          	mv	a2,a0
80001bb0:	02f81463          	bne	a6,a5,80001bd8 <strcpy+0x58>
80001bb4:	00458593          	addi	a1,a1,4
80001bb8:	00e62023          	sw	a4,0(a2)
80001bbc:	0005a703          	lw	a4,0(a1)
80001bc0:	00460613          	addi	a2,a2,4
80001bc4:	00d777b3          	and	a5,a4,a3
80001bc8:	00d787b3          	add	a5,a5,a3
80001bcc:	00e7e7b3          	or	a5,a5,a4
80001bd0:	00d7e7b3          	or	a5,a5,a3
80001bd4:	ff0780e3          	beq	a5,a6,80001bb4 <strcpy+0x34>
80001bd8:	0005c783          	lbu	a5,0(a1)
80001bdc:	0015c703          	lbu	a4,1(a1)
80001be0:	0025c683          	lbu	a3,2(a1)
80001be4:	00f60023          	sb	a5,0(a2)
80001be8:	00078a63          	beqz	a5,80001bfc <strcpy+0x7c>
80001bec:	00e600a3          	sb	a4,1(a2)
80001bf0:	00070663          	beqz	a4,80001bfc <strcpy+0x7c>
80001bf4:	00d60123          	sb	a3,2(a2)
80001bf8:	00069463          	bnez	a3,80001c00 <strcpy+0x80>
80001bfc:	00008067          	ret
80001c00:	000601a3          	sb	zero,3(a2)
80001c04:	00008067          	ret
80001c08:	00050793          	mv	a5,a0
80001c0c:	0005c703          	lbu	a4,0(a1)
80001c10:	00178793          	addi	a5,a5,1
80001c14:	00158593          	addi	a1,a1,1
80001c18:	fee78fa3          	sb	a4,-1(a5)
80001c1c:	fe0718e3          	bnez	a4,80001c0c <strcpy+0x8c>
80001c20:	00008067          	ret

80001c24 <__retarget_lock_acquire_recursive>:
__retarget_lock_acquire_recursive():
80001c24:	00008067          	ret

80001c28 <__retarget_lock_release_recursive>:
__retarget_lock_release_recursive():
80001c28:	00008067          	ret

80001c2c <_malloc_trim_r>:
_malloc_trim_r():
80001c2c:	fe010113          	addi	sp,sp,-32
80001c30:	00812c23          	sw	s0,24(sp)
80001c34:	00912a23          	sw	s1,20(sp)
80001c38:	01212823          	sw	s2,16(sp)
80001c3c:	01312623          	sw	s3,12(sp)
80001c40:	01412423          	sw	s4,8(sp)
80001c44:	00058993          	mv	s3,a1
80001c48:	00112e23          	sw	ra,28(sp)
80001c4c:	00050913          	mv	s2,a0
80001c50:	00000a17          	auipc	s4,0x0
80001c54:	6b8a0a13          	addi	s4,s4,1720 # 80002308 <__malloc_av_>
80001c58:	b69ff0ef          	jal	800017c0 <__malloc_lock>
80001c5c:	008a2783          	lw	a5,8(s4)
80001c60:	00001437          	lui	s0,0x1
80001c64:	fef40413          	addi	s0,s0,-17 # fef <_start-0x7ffff011>
80001c68:	0047a483          	lw	s1,4(a5)
80001c6c:	000017b7          	lui	a5,0x1
80001c70:	ffc4f493          	andi	s1,s1,-4
80001c74:	00848433          	add	s0,s1,s0
80001c78:	41340433          	sub	s0,s0,s3
80001c7c:	00c45413          	srli	s0,s0,0xc
80001c80:	fff40413          	addi	s0,s0,-1
80001c84:	00c41413          	slli	s0,s0,0xc
80001c88:	00f44e63          	blt	s0,a5,80001ca4 <_malloc_trim_r+0x78>
80001c8c:	00000593          	li	a1,0
80001c90:	00090513          	mv	a0,s2
80001c94:	de9ff0ef          	jal	80001a7c <_sbrk_r>
80001c98:	008a2783          	lw	a5,8(s4)
80001c9c:	009787b3          	add	a5,a5,s1
80001ca0:	02f50863          	beq	a0,a5,80001cd0 <_malloc_trim_r+0xa4>
80001ca4:	00090513          	mv	a0,s2
80001ca8:	b25ff0ef          	jal	800017cc <__malloc_unlock>
80001cac:	01c12083          	lw	ra,28(sp)
80001cb0:	01812403          	lw	s0,24(sp)
80001cb4:	01412483          	lw	s1,20(sp)
80001cb8:	01012903          	lw	s2,16(sp)
80001cbc:	00c12983          	lw	s3,12(sp)
80001cc0:	00812a03          	lw	s4,8(sp)
80001cc4:	00000513          	li	a0,0
80001cc8:	02010113          	addi	sp,sp,32
80001ccc:	00008067          	ret
80001cd0:	408005b3          	neg	a1,s0
80001cd4:	00090513          	mv	a0,s2
80001cd8:	da5ff0ef          	jal	80001a7c <_sbrk_r>
80001cdc:	fff00793          	li	a5,-1
80001ce0:	04f50a63          	beq	a0,a5,80001d34 <_malloc_trim_r+0x108>
80001ce4:	00001717          	auipc	a4,0x1
80001ce8:	b9c70713          	addi	a4,a4,-1124 # 80002880 <__malloc_current_mallinfo>
80001cec:	008a2683          	lw	a3,8(s4)
80001cf0:	00072783          	lw	a5,0(a4)
80001cf4:	408484b3          	sub	s1,s1,s0
80001cf8:	0014e493          	ori	s1,s1,1
80001cfc:	00090513          	mv	a0,s2
80001d00:	408787b3          	sub	a5,a5,s0
80001d04:	0096a223          	sw	s1,4(a3)
80001d08:	00f72023          	sw	a5,0(a4)
80001d0c:	ac1ff0ef          	jal	800017cc <__malloc_unlock>
80001d10:	01c12083          	lw	ra,28(sp)
80001d14:	01812403          	lw	s0,24(sp)
80001d18:	01412483          	lw	s1,20(sp)
80001d1c:	01012903          	lw	s2,16(sp)
80001d20:	00c12983          	lw	s3,12(sp)
80001d24:	00812a03          	lw	s4,8(sp)
80001d28:	00100513          	li	a0,1
80001d2c:	02010113          	addi	sp,sp,32
80001d30:	00008067          	ret
80001d34:	00000593          	li	a1,0
80001d38:	00090513          	mv	a0,s2
80001d3c:	d41ff0ef          	jal	80001a7c <_sbrk_r>
80001d40:	008a2703          	lw	a4,8(s4)
80001d44:	00f00693          	li	a3,15
80001d48:	40e507b3          	sub	a5,a0,a4
80001d4c:	f4f6dce3          	bge	a3,a5,80001ca4 <_malloc_trim_r+0x78>
80001d50:	00001697          	auipc	a3,0x1
80001d54:	ae46a683          	lw	a3,-1308(a3) # 80002834 <__malloc_sbrk_base>
80001d58:	0017e793          	ori	a5,a5,1
80001d5c:	00f72223          	sw	a5,4(a4)
80001d60:	40d50533          	sub	a0,a0,a3
80001d64:	00001797          	auipc	a5,0x1
80001d68:	b0a7ae23          	sw	a0,-1252(a5) # 80002880 <__malloc_current_mallinfo>
80001d6c:	f39ff06f          	j	80001ca4 <_malloc_trim_r+0x78>

80001d70 <_free_r>:
_free_r():
80001d70:	12058663          	beqz	a1,80001e9c <_free_r+0x12c>
80001d74:	ff010113          	addi	sp,sp,-16
80001d78:	00812423          	sw	s0,8(sp)
80001d7c:	00912223          	sw	s1,4(sp)
80001d80:	00058413          	mv	s0,a1
80001d84:	00050493          	mv	s1,a0
80001d88:	00112623          	sw	ra,12(sp)
80001d8c:	a35ff0ef          	jal	800017c0 <__malloc_lock>
80001d90:	ffc42583          	lw	a1,-4(s0)
80001d94:	ff840713          	addi	a4,s0,-8
80001d98:	00000817          	auipc	a6,0x0
80001d9c:	57080813          	addi	a6,a6,1392 # 80002308 <__malloc_av_>
80001da0:	ffe5f793          	andi	a5,a1,-2
80001da4:	00f70633          	add	a2,a4,a5
80001da8:	00462683          	lw	a3,4(a2)
80001dac:	00882503          	lw	a0,8(a6)
80001db0:	0015f893          	andi	a7,a1,1
80001db4:	ffc6f693          	andi	a3,a3,-4
80001db8:	18c50c63          	beq	a0,a2,80001f50 <_free_r+0x1e0>
80001dbc:	00d62223          	sw	a3,4(a2)
80001dc0:	00d60533          	add	a0,a2,a3
80001dc4:	00452503          	lw	a0,4(a0)
80001dc8:	00157513          	andi	a0,a0,1
80001dcc:	08089c63          	bnez	a7,80001e64 <_free_r+0xf4>
80001dd0:	ff842303          	lw	t1,-8(s0)
80001dd4:	00000897          	auipc	a7,0x0
80001dd8:	53c88893          	addi	a7,a7,1340 # 80002310 <__malloc_av_+0x8>
80001ddc:	40670733          	sub	a4,a4,t1
80001de0:	00872583          	lw	a1,8(a4)
80001de4:	006787b3          	add	a5,a5,t1
80001de8:	13158e63          	beq	a1,a7,80001f24 <_free_r+0x1b4>
80001dec:	00c72303          	lw	t1,12(a4)
80001df0:	0065a623          	sw	t1,12(a1)
80001df4:	00b32423          	sw	a1,8(t1)
80001df8:	1a050463          	beqz	a0,80001fa0 <_free_r+0x230>
80001dfc:	0017e693          	ori	a3,a5,1
80001e00:	00d72223          	sw	a3,4(a4)
80001e04:	00f62023          	sw	a5,0(a2)
80001e08:	1ff00693          	li	a3,511
80001e0c:	0af6e463          	bltu	a3,a5,80001eb4 <_free_r+0x144>
80001e10:	ff87f693          	andi	a3,a5,-8
80001e14:	00868693          	addi	a3,a3,8
80001e18:	00482583          	lw	a1,4(a6)
80001e1c:	00d806b3          	add	a3,a6,a3
80001e20:	0006a603          	lw	a2,0(a3)
80001e24:	0057d513          	srli	a0,a5,0x5
80001e28:	00100793          	li	a5,1
80001e2c:	00a797b3          	sll	a5,a5,a0
80001e30:	00b7e7b3          	or	a5,a5,a1
80001e34:	ff868593          	addi	a1,a3,-8
80001e38:	00c72423          	sw	a2,8(a4)
80001e3c:	00b72623          	sw	a1,12(a4)
80001e40:	00f82223          	sw	a5,4(a6)
80001e44:	00e6a023          	sw	a4,0(a3)
80001e48:	00e62623          	sw	a4,12(a2)
80001e4c:	00812403          	lw	s0,8(sp)
80001e50:	00c12083          	lw	ra,12(sp)
80001e54:	00048513          	mv	a0,s1
80001e58:	00412483          	lw	s1,4(sp)
80001e5c:	01010113          	addi	sp,sp,16
80001e60:	96dff06f          	j	800017cc <__malloc_unlock>
80001e64:	02051e63          	bnez	a0,80001ea0 <_free_r+0x130>
80001e68:	00d787b3          	add	a5,a5,a3
80001e6c:	00000897          	auipc	a7,0x0
80001e70:	4a488893          	addi	a7,a7,1188 # 80002310 <__malloc_av_+0x8>
80001e74:	00862683          	lw	a3,8(a2)
80001e78:	0017e513          	ori	a0,a5,1
80001e7c:	00f705b3          	add	a1,a4,a5
80001e80:	17168663          	beq	a3,a7,80001fec <_free_r+0x27c>
80001e84:	00c62603          	lw	a2,12(a2)
80001e88:	00c6a623          	sw	a2,12(a3)
80001e8c:	00d62423          	sw	a3,8(a2)
80001e90:	00a72223          	sw	a0,4(a4)
80001e94:	00f5a023          	sw	a5,0(a1)
80001e98:	f71ff06f          	j	80001e08 <_free_r+0x98>
80001e9c:	00008067          	ret
80001ea0:	0015e593          	ori	a1,a1,1
80001ea4:	feb42e23          	sw	a1,-4(s0)
80001ea8:	00f62023          	sw	a5,0(a2)
80001eac:	1ff00693          	li	a3,511
80001eb0:	f6f6f0e3          	bgeu	a3,a5,80001e10 <_free_r+0xa0>
80001eb4:	0097d693          	srli	a3,a5,0x9
80001eb8:	00400613          	li	a2,4
80001ebc:	0ed66663          	bltu	a2,a3,80001fa8 <_free_r+0x238>
80001ec0:	0067d693          	srli	a3,a5,0x6
80001ec4:	03968593          	addi	a1,a3,57
80001ec8:	00359593          	slli	a1,a1,0x3
80001ecc:	03868613          	addi	a2,a3,56
80001ed0:	00b805b3          	add	a1,a6,a1
80001ed4:	0005a683          	lw	a3,0(a1)
80001ed8:	ff858593          	addi	a1,a1,-8
80001edc:	00d59863          	bne	a1,a3,80001eec <_free_r+0x17c>
80001ee0:	1280006f          	j	80002008 <_free_r+0x298>
80001ee4:	0086a683          	lw	a3,8(a3)
80001ee8:	00d58863          	beq	a1,a3,80001ef8 <_free_r+0x188>
80001eec:	0046a603          	lw	a2,4(a3)
80001ef0:	ffc67613          	andi	a2,a2,-4
80001ef4:	fec7e8e3          	bltu	a5,a2,80001ee4 <_free_r+0x174>
80001ef8:	00c6a583          	lw	a1,12(a3)
80001efc:	00b72623          	sw	a1,12(a4)
80001f00:	00d72423          	sw	a3,8(a4)
80001f04:	00812403          	lw	s0,8(sp)
80001f08:	00c12083          	lw	ra,12(sp)
80001f0c:	00e5a423          	sw	a4,8(a1)
80001f10:	00048513          	mv	a0,s1
80001f14:	00412483          	lw	s1,4(sp)
80001f18:	00e6a623          	sw	a4,12(a3)
80001f1c:	01010113          	addi	sp,sp,16
80001f20:	8adff06f          	j	800017cc <__malloc_unlock>
80001f24:	0a051463          	bnez	a0,80001fcc <_free_r+0x25c>
80001f28:	00c62583          	lw	a1,12(a2)
80001f2c:	00862603          	lw	a2,8(a2)
80001f30:	00f686b3          	add	a3,a3,a5
80001f34:	0016e793          	ori	a5,a3,1
80001f38:	00b62623          	sw	a1,12(a2)
80001f3c:	00c5a423          	sw	a2,8(a1)
80001f40:	00f72223          	sw	a5,4(a4)
80001f44:	00d70733          	add	a4,a4,a3
80001f48:	00d72023          	sw	a3,0(a4)
80001f4c:	f01ff06f          	j	80001e4c <_free_r+0xdc>
80001f50:	00d786b3          	add	a3,a5,a3
80001f54:	02089063          	bnez	a7,80001f74 <_free_r+0x204>
80001f58:	ff842583          	lw	a1,-8(s0)
80001f5c:	40b70733          	sub	a4,a4,a1
80001f60:	00c72783          	lw	a5,12(a4)
80001f64:	00872603          	lw	a2,8(a4)
80001f68:	00b686b3          	add	a3,a3,a1
80001f6c:	00f62623          	sw	a5,12(a2)
80001f70:	00c7a423          	sw	a2,8(a5)
80001f74:	0016e613          	ori	a2,a3,1
80001f78:	00001797          	auipc	a5,0x1
80001f7c:	8c07a783          	lw	a5,-1856(a5) # 80002838 <__malloc_trim_threshold>
80001f80:	00c72223          	sw	a2,4(a4)
80001f84:	00e82423          	sw	a4,8(a6)
80001f88:	ecf6e2e3          	bltu	a3,a5,80001e4c <_free_r+0xdc>
80001f8c:	00001597          	auipc	a1,0x1
80001f90:	8dc5a583          	lw	a1,-1828(a1) # 80002868 <__malloc_top_pad>
80001f94:	00048513          	mv	a0,s1
80001f98:	c95ff0ef          	jal	80001c2c <_malloc_trim_r>
80001f9c:	eb1ff06f          	j	80001e4c <_free_r+0xdc>
80001fa0:	00d787b3          	add	a5,a5,a3
80001fa4:	ed1ff06f          	j	80001e74 <_free_r+0x104>
80001fa8:	01400613          	li	a2,20
80001fac:	02d67863          	bgeu	a2,a3,80001fdc <_free_r+0x26c>
80001fb0:	05400613          	li	a2,84
80001fb4:	06d66863          	bltu	a2,a3,80002024 <_free_r+0x2b4>
80001fb8:	00c7d693          	srli	a3,a5,0xc
80001fbc:	06f68593          	addi	a1,a3,111
80001fc0:	00359593          	slli	a1,a1,0x3
80001fc4:	06e68613          	addi	a2,a3,110
80001fc8:	f09ff06f          	j	80001ed0 <_free_r+0x160>
80001fcc:	0017e693          	ori	a3,a5,1
80001fd0:	00d72223          	sw	a3,4(a4)
80001fd4:	00f62023          	sw	a5,0(a2)
80001fd8:	e75ff06f          	j	80001e4c <_free_r+0xdc>
80001fdc:	05c68593          	addi	a1,a3,92
80001fe0:	00359593          	slli	a1,a1,0x3
80001fe4:	05b68613          	addi	a2,a3,91
80001fe8:	ee9ff06f          	j	80001ed0 <_free_r+0x160>
80001fec:	00e82a23          	sw	a4,20(a6)
80001ff0:	00e82823          	sw	a4,16(a6)
80001ff4:	01172623          	sw	a7,12(a4)
80001ff8:	01172423          	sw	a7,8(a4)
80001ffc:	00a72223          	sw	a0,4(a4)
80002000:	00f5a023          	sw	a5,0(a1)
80002004:	e49ff06f          	j	80001e4c <_free_r+0xdc>
80002008:	00482503          	lw	a0,4(a6)
8000200c:	40265613          	srai	a2,a2,0x2
80002010:	00100793          	li	a5,1
80002014:	00c797b3          	sll	a5,a5,a2
80002018:	00a7e7b3          	or	a5,a5,a0
8000201c:	00f82223          	sw	a5,4(a6)
80002020:	eddff06f          	j	80001efc <_free_r+0x18c>
80002024:	15400613          	li	a2,340
80002028:	00d66c63          	bltu	a2,a3,80002040 <_free_r+0x2d0>
8000202c:	00f7d693          	srli	a3,a5,0xf
80002030:	07868593          	addi	a1,a3,120
80002034:	00359593          	slli	a1,a1,0x3
80002038:	07768613          	addi	a2,a3,119
8000203c:	e95ff06f          	j	80001ed0 <_free_r+0x160>
80002040:	55400613          	li	a2,1364
80002044:	00d66c63          	bltu	a2,a3,8000205c <_free_r+0x2ec>
80002048:	0127d693          	srli	a3,a5,0x12
8000204c:	07d68593          	addi	a1,a3,125
80002050:	00359593          	slli	a1,a1,0x3
80002054:	07c68613          	addi	a2,a3,124
80002058:	e79ff06f          	j	80001ed0 <_free_r+0x160>
8000205c:	3f800593          	li	a1,1016
80002060:	07e00613          	li	a2,126
80002064:	e6dff06f          	j	80001ed0 <_free_r+0x160>

80002068 <__divsi3>:
__divsi3():
80002068:	06054063          	bltz	a0,800020c8 <__umodsi3+0x10>
8000206c:	0605c663          	bltz	a1,800020d8 <__umodsi3+0x20>

80002070 <__hidden___udivsi3>:
80002070:	00058613          	mv	a2,a1
80002074:	00050593          	mv	a1,a0
80002078:	fff00513          	li	a0,-1
8000207c:	02060c63          	beqz	a2,800020b4 <__hidden___udivsi3+0x44>
80002080:	00100693          	li	a3,1
80002084:	00b67a63          	bgeu	a2,a1,80002098 <__hidden___udivsi3+0x28>
80002088:	00c05863          	blez	a2,80002098 <__hidden___udivsi3+0x28>
8000208c:	00161613          	slli	a2,a2,0x1
80002090:	00169693          	slli	a3,a3,0x1
80002094:	feb66ae3          	bltu	a2,a1,80002088 <__hidden___udivsi3+0x18>
80002098:	00000513          	li	a0,0
8000209c:	00c5e663          	bltu	a1,a2,800020a8 <__hidden___udivsi3+0x38>
800020a0:	40c585b3          	sub	a1,a1,a2
800020a4:	00d56533          	or	a0,a0,a3
800020a8:	0016d693          	srli	a3,a3,0x1
800020ac:	00165613          	srli	a2,a2,0x1
800020b0:	fe0696e3          	bnez	a3,8000209c <__hidden___udivsi3+0x2c>
800020b4:	00008067          	ret

800020b8 <__umodsi3>:
800020b8:	00008293          	mv	t0,ra
800020bc:	fb5ff0ef          	jal	80002070 <__hidden___udivsi3>
800020c0:	00058513          	mv	a0,a1
800020c4:	00028067          	jr	t0
800020c8:	40a00533          	neg	a0,a0
800020cc:	00b04863          	bgtz	a1,800020dc <__umodsi3+0x24>
800020d0:	40b005b3          	neg	a1,a1
800020d4:	f9dff06f          	j	80002070 <__hidden___udivsi3>
800020d8:	40b005b3          	neg	a1,a1
800020dc:	00008293          	mv	t0,ra
800020e0:	f91ff0ef          	jal	80002070 <__hidden___udivsi3>
800020e4:	40a00533          	neg	a0,a0
800020e8:	00028067          	jr	t0

800020ec <__modsi3>:
__modsi3():
800020ec:	00008293          	mv	t0,ra
800020f0:	0005ca63          	bltz	a1,80002104 <__modsi3+0x18>
800020f4:	00054c63          	bltz	a0,8000210c <__modsi3+0x20>
800020f8:	f79ff0ef          	jal	80002070 <__hidden___udivsi3>
800020fc:	00058513          	mv	a0,a1
80002100:	00028067          	jr	t0
80002104:	40b005b3          	neg	a1,a1
80002108:	fe0558e3          	bgez	a0,800020f8 <__modsi3+0xc>
8000210c:	40a00533          	neg	a0,a0
80002110:	f61ff0ef          	jal	80002070 <__hidden___udivsi3>
80002114:	40b00533          	neg	a0,a1
80002118:	00028067          	jr	t0
